(inncore
Net
p0
(dp1
S'layers'
p2
(lp3
(iLayer
Layer
p4
(dp5
S'deltas'
p6
(lp7
cnumpy.core.multiarray
scalar
p8
(cnumpy
dtype
p9
(S'f8'
p10
I0
I1
tp11
Rp12
(I3
S'<'
p13
NNNI-1
I-1
I0
tp14
bS'\x87?\xaf\\\xa7+\xa2?'
p15
tp16
Rp17
ag8
(g12
S'\x98\xe8|\x00\xf0\x9a\xac?'
p18
tp19
Rp20
ag8
(g12
S'-\xc3\xba\x87\xc1B\x8a?'
p21
tp22
Rp23
ag8
(g12
S'Vn*\xe1\xcc\xea\xb0?'
p24
tp25
Rp26
ag8
(g12
S' \xf7i\xbe\x8a\xc5\xaf?'
p27
tp28
Rp29
ag8
(g12
S'\x97\xd6:P\x1d\x17\xb9?'
p30
tp31
Rp32
ag8
(g12
S'Zu\xf2N\xd7\xf7\xa4?'
p33
tp34
Rp35
ag8
(g12
S'(\xce?\x9bc\x95\x9a?'
p36
tp37
Rp38
ag8
(g12
S'W\x99\x8c\xb7 \xa7\x92?'
p39
tp40
Rp41
ag8
(g12
S'1\x8a?L\xd6\xb9\xa9?'
p42
tp43
Rp44
ag8
(g12
S'D\xb6\x11B\xe8\x94\xcf?'
p45
tp46
Rp47
ag8
(g12
S'\x11\xc4C\x96@\xef\x9d?'
p48
tp49
Rp50
ag8
(g12
S'?XN\xda\x9b\xbf\xa5?'
p51
tp52
Rp53
ag8
(g12
S'\xe9\xc0\xb2;D\xda\xa1?'
p54
tp55
Rp56
ag8
(g12
S'\x12\xbc\xb5\xe8\xb8<\xc4?'
p57
tp58
Rp59
ag8
(g12
S'KJ\x9b%\xca\x1e\xcc?'
p60
tp61
Rp62
ag8
(g12
S'a\x08\x7fc\xdd\x92\xc3?'
p63
tp64
Rp65
ag8
(g12
S'\x13\xbe?v\xf6\xb5a?'
p66
tp67
Rp68
ag8
(g12
S'\x16I\x98\x84/(h?'
p69
tp70
Rp71
ag8
(g12
S'y\x05YE\xee\x00\x9a?'
p72
tp73
Rp74
asS'derivata_sorta'
p75
cnncore
derivata_logistic
p76
sS'o'
p77
cnncore
logistic
p78
sS'sinapsi'
p79
cnumpy.core.multiarray
_reconstruct
p80
(cnumpy
ndarray
p81
(I0
tp82
S'b'
p83
tp84
Rp85
(I1
(L20L
L11L
tp86
g9
(S'f8'
p87
I0
I1
tp88
Rp89
(I3
S'<'
p90
NNNI-1
I-1
I0
tp91
bI00
S'\xdb~%\xb6\xb8\x9d\x02\xc0u\xabu\x8f\xff\xd4\xd5\xbf\xc8x!\x13\xc0\xd6\xd7?q%k\xf1;\t\xcf\xbf\xfaD,\xaf\xbf9\xd4\xbf]\xf7\xe6\xb0@\xc7\xd3\xbf,\xfa\x8dC\x81W\xd2\xbf\xd70=\xc3L\x82\xe6\xbf^\xf5\xf0\xd6Q\xb2\xea?f\xec\xe7\x14#<\xdd\xbf\xab\x98e\xd2\xf5%\xe2\xbf\xce\xf4\x8c\xafx\xed\xfa?}\r\xc8\x82Rq\xdd?\xdeF\x03p\xc6.\xe5?\xa0t\xf1\xb9)\xe0\xd5?\xbc\xcd7\xcad\xc7\xc4?U\x89\xce9@\xc5\xcc\xbfb\x88\xe9\x8bl\xbc\xe2?$\xca\xf4\xd6\x98\xda\xe0?\t\xaf\xf3\xc3q9\xe6?\xe5\x92\x01\xcb.i\xe1\xbf\x99\xa5\xf6\x03\x8d\xb6\xdb?\x10\x12\x8c2\x04M\x06@\xa2\xcdyb%0\xe3?\x9a\xc7\n\xe5\x16\xda\xe9?\xa0\x194\xfcRa\xe1?P<8\x03\xcfa\xec?\x90\x055Ro\x1a\xca\xbfl\xe0I|\x8e=\xef?)\xe6\xcc\xcb\x9f\xf7\xe2?\x94\xc6\x00\xd8\xe6\xba\xf4?\x1c\x18\xe9,\x1c#\xda\xbfP\xda*\xe1\x85\xa7\xe2?\xca\r\x11\xbdC\xef\xf4\xbf\xd8\x0f\x90y\xe1y\xcb\xbfH\xadF\xbf\xdc\xf4\xca?\x98\xcfe\xe9\xc1\x0e\xa6?\x1cw2Qv\xa8\xd1\xbfz\xe3"\x81\x89\xa7\xcf\xbf\xad\r\x1e\x08\x04\x07\xd7\xbf\x15\x8b)@\xebJ\x8b?\xbcCBjA\xe5\xe2?_\xccl\x11y=\xda\xbf\x0b\xf3\x08\xc5\x8e\xf8\xd7\xbf;>\x07z\xf8\xff\xe8?\xc1\x9ec\x0e\x9b\xd9\xd5?hp\xacq\x10d\xde?!,\x8c\x075\xdf\xe1?VpZ\xefNa\xbc?\x8cSL\xf6\xf2,\xc5\xbf\xf4E\xc8\x14\x89\x0f\xd2?\x07<\xd9.\xa1j\xd6?\x88\xbc\xd9\x10f[\xd4?&\xf4\x17\x19\xc8\x13\xd3\xbf\xd1H\xaf\x1d\xd4\x90\xd4?;J*\xbe$\x10\xe7\xbf\xf1\x1f\x1b\xdf/c\xc9\xbf6v\\1z\x1c\xd8?\x15KPN\x19c\xc3?\xe5\xae\xfc]K\x17\xd4\xbfI:\x03;/\x8e\xd5\xbfH;b\xde\x81c\xc8\xbf\xe3\x16\xf0\x8c]J\x97?\rr[\xdfF?\xdb?>\xbd\xf4\x95\xa3K\xd9\xbf5aL*(\x83\xb7\xbf]\xbd%\x00\xfa\xe7\xcf\xbf\xcb_\x9f\x13\x1b\x97\xe1?\xcbL?\xf1\xbd\x06\xcf?\xb3\x102\x8a\xd6\xfd\xa3\xbf\x1e\x14\x87-_\xb9\xee?L\xb6p\x0eu\x06\xe1?p\xf5\xbfQv\xff\xf2?A0\x93K1\xf7\xa8?\x87e`[y\xfe\xda?\xa6\xb7\x99O<R\xb4?\x90\x7f\xaeQ\x87\xb7\xe8?OA\xf8\x80\xbd\xde\x01\xc0\x00\xfb\x97[\x075\xbd\xbf\xe8\x18\xac\xbc6\x1c\xbd?\'\xe8\xf5\x08\x16z\xdc\xbf\xbf4\x00\xf5[@\xc8\xbf\x16=\xdb9\xc9\n\xba\xbfvv14\xab#\xcd\xbf\'\x19\xb4}\x11P\xe8\xbf\xf02\xa3\xb3n9\xf2?\x07\xfe\\\x82\x0f\x87\xd9\xbf\x84J29\xfc<\xda\xbf\xd7\x12\x04r\xae\x9c\xcc?\xba<\x0f\xdf\n\xde\xe7?\x18\xd8\x0c\xfc\xcb\x81\xba?\xd2u_\x94x\xf7\xb5?X\xc1?R\xdf\xb4\xe1?e\x13\xe8\xeei\x9f\xc9?aQ\x98\x0b\x92\x8c\xec?\xfb8\xf7\xf4\x99\xf3\xd6?\x18\xc8\xb1B\xebr\x92?S\xdf\xba\x02\xa9\xd0\xc1?Tv?\xa3\xd9{\xe6?\x00\xce\x06\t\x93\x89\xf6\xbf~\xa3`\xec\x8d\xf8\xe0\xbf\xc8\xbe\xc44\x00\x14\xe3?K|\x8fo\xc8\xfb\xd8?h%\xd3\x8e\x81\x11\xd8\xbf\xd0\xc7\x8cA\x9f\x9c\xdd\xbf\xb7#\xb0\xd6\xdc\xe8\xe1\xbf\x19\x88v\x028\x8f\xcf?\x83\x03v\xc6j\xd3\xe0?\x96\x07\x12y\xea\xab\xde\xbf\'\xf8&\xecK\x8c\xe4\xbf\x12\x1fw\x19\xb3\x05\xc7?\x1e\x11\x90\xc2\xa9\xb8\xd5?\x84P\x83\x05]\xd0\xe4?<\xe5\xc5\x822\xa4\xd5?\x17H&\xe9\x0fn\xd1\xbf\\\x01t\x9e=/\xdd\xbf\\\xc3h]!\x12\x86?a\x05\xaf\xd2\x0c^\xc6?\x91\xe4X\x82\x97\x01\xdd?\x98\x97\xe2\xed\x0c_\xd6\xbf\xce]4E\x89\x1b\xbe\xbf\x83\x85\xb2\x97\xfa\xfe\xff\xbf\x97\xac\x11OO\x8a\xd2\xbf\x8b/\xa3\x02\xbd\x1d\xd1?\x116\xcde\xd4a\xda\xbf\t\x90\xf7\xbd\xfej\xd3\xbfv\xea%\x8b%\xad\xce\xbf\xc0\n#\x85>\xd6\xc3\xbf\xd2/\xa4\x92\x84f\xdf\xbf\x89\x05Uy\x1e\xad\xee?\x0f\xf5\xad\x0f.\xd3\xd4\xbf\x17\x86\xcfR\x0b\x86\xd5\xbf\x17DO\x8cGV\xff?\'\xfbD\xeeL\xd6\xe0?\xc1\xe35\x18\t\xed\xe0?\x81\x11\xc7\x81\n}\xd9?d\xd8s\xbam)\xe0?\xf4\xd2\xfc\x1dAs\xd2\xbf\x1b\x8d\x1dU\rV\xe7?\xbaQ\x90\x16Gu\xe1?\x90\xa1\xf3\x99\x19\xfe\xea?\x9du\x9c\xf1\xb1\x80\xda\xbf\xeb\x0f\x94\xe0\xc6Z\xd6?\xd6\t\x8a:\xbci\xfd?+\xa4\xe7\x16V\xa4\xe0?\xf9!\xf2\x03\x8aU\xe9?F\xe68:\xee\xf4\xd8?\xb6\xa9n\x954\xc9\xd0?\x88\xb785\xb0>\xc9\xbf$\x04\x94H\xe5V\xe1?+C\xd3\xed\xcb\xf5\xd7?\x1aI\x06U\xa1\xc4\xea?\x962\xe6m\x0ee\xdc\xbf\xfc\xb2\t\xf8Z&\xdf?\xce\xc1\xa7\xd2\x90E\xe8?<\xc1)\x08\xe0\xd2\xc8??\xb9\xdc\x9b\xbd0\xe9?\x9cCZ\xe1\xd0r\xdc?\xe2\xceNw;7\xc1\xbf\xd0\xbe\x12\x8b\xc3\x83\xdd\xbf\xf4\xf0\x16\xf3\x03\x99\xc2?\xd6FF4={\xd8?\xe4\xf9\x86WqG\xe0?\xc8j\x18\x80%C\xd8\xbf\x8bbQ\xe8\xe6\xdc\xba\xbf\xe3\x1b}\xcf\x03|\xe7\xbf\xca\x7f\xe1\xb8\x9f.\xc9?\x99u\x9d\xb2\xb1\xfd\xb4?\xf7\\\x82\xf9\xb7\xf9\xd6\xbf\xe3{\xd3\xfc\x7f&\xb5\xbf\x95I\rY\xf0\x18\xb6?a\x9c\x81<\xf0\x7f\x96?A\xf4}\xd8\x87\xa7\xc5\xbf)l\xd6+\x89K\xe3?\xe9Q\xe7:\xa7~n?\x914(\xa8\x84\xbd\xb7\xbf\x8a$\x92\xcb\xb0\xbc\xe6\xbf\\?!\xc2\x93R\xbe?\xdc\x9d\xa2\xba\x87\\\xd6?\xc7Q\x0eF\x8d\xd5\xd2?\x98\xbf\x97N\xda\x9d\xd8\xbf\xaeD\x8f\xf0\xf5\xd2\xd0\xbf\xf5x\xf3\x17\xdf\x89\xdd\xbfg\xde\x91\x0c\xcfj\xc6?\x17\xc2\xe1)GK\xde?[R\xeag-t\xd3\xbf\xc4\x00O\x01;\x06\xd9\xbf\xbbCI\x8e\x01\xe0\xbc?\x898\xe37\xed\xa5\xea?!\xc0\xe1\x87\xd8&\xe4?e\xdaAd\xeeL\xf3?{>iq\x13\x85\xd2?\xb2\xc2\xc3}\x1d\xf6\xc3\xbfH@\xdf\xc5\x90\x11\xe2?\x9e\xa9Zk^\xec\xf3?\x9d\x1ask\x1b\xcb\xeb\xbf\x06\x1b\xe9\xedS\x89\xc5\xbfO3\x04\xcd\xd6\xd9\xdc?5\xb40\xa0\x00|\xbc?\xbf\na\xbe\x97\xd7\xd7?Wz\xc2\xc2\xa0f\xe3?Pcl\xc6&\xf0\xe8?\xf6T\xaa\x881\xf3\xb5?\x01y\xa7\xd4\xe0\xe1\xb9\xbf&\x17,\xa7\xac\x04\xd4?\x1f\x14\xd6Y\x18\xbe\xe8?\xf2]\xf9\x86\x14\xb5\xdc\xbfJ\xbb\xcfM9\xfd\xc9\xbf\x9e\x89\xaf\x08f\x0e\xc3?\x16W4-\xc1\xac\xc6?$\x0edZ\xae\xbf\xe3?\x19\xad\xbc?\x19\xab\xb3?\xa86\xe7\xc6\xf8\x9e\xa1\xbfC\x18%5\xd3\x0e\xe5?\x13\x0bG\xaf\x9dc\xe0?6Pt[\xed\x94\xea?\xbej\xd9C\x96\xc2\xc8?\x9cXG\xb8\x04\xf7\x9e?s\xf2\xbef\x98\x94\x86\xbf\x9a\xca\x1cR\xfa3\xe4?'
p92
tp93
bsS'net'
p94
g80
(g81
(I0
tp95
g83
tp96
Rp97
(I1
(L20L
tp98
g12
I00
S'W-\xdc\x8a$\xd0\xe6?\xe0\x7f\xd9\xfbgr\x12@\xaf\xc2\x15\r7\xa0\x16@\xd4\xe5z\xc0\xf4\x17\xfa?\x16"w\x07\xc2K\x07@\xa2\xae\xf3\xea\x85\xbb\x00@H\xe4\x82\x8e[\x10\x03\xc0@\xa80|\xa0\x8ay?\xdf\xfa\xe5\xd4{d\xf5\xbf4*\x07.\x1c\xa1\n@ZT!!\xdb\xc7\x0e@\x1f\xea"=\xbe\xcb\xdc?\x92\xea\x0cX\xff\xdb\x11@P\xc5q-0;\x13@\x04\x97\xb3\xb6)\xf5\x12@\xd4\x8e\x1e\x035\xdf\xb5\xbf\xd7g\xa7\xf8\xae\xb9\x06@&\xf7\xef\xa6\xd4R\xf8?\xde\xde\x81\x9a4\xf7\xfd?{x\xc8m\x11(\xfd\xbf'
p99
tp100
bsS'previous_out'
p101
(lp102
F1.0
aF0.244365
aF1.495304
aF1.234733
aF-1.364332
aF-0.924681
aF-0.406114
aF0.680087
aF1.514813
aF-1.341457
aF-1.118299
asS'gradients'
p103
(lp104
(lp105
I0
aI0
aI0
aI0
aI0
aI0
aI0
aI0
aI0
aI0
aI0
aa(lp106
I0
aI0
aI0
aI0
aI0
aI0
aI0
aI0
aI0
aI0
aI0
aa(lp107
I0
aI0
aI0
aI0
aI0
aI0
aI0
aI0
aI0
aI0
aI0
aa(lp108
I0
aI0
aI0
aI0
aI0
aI0
aI0
aI0
aI0
aI0
aI0
aa(lp109
I0
aI0
aI0
aI0
aI0
aI0
aI0
aI0
aI0
aI0
aI0
aa(lp110
I0
aI0
aI0
aI0
aI0
aI0
aI0
aI0
aI0
aI0
aI0
aa(lp111
I0
aI0
aI0
aI0
aI0
aI0
aI0
aI0
aI0
aI0
aI0
aa(lp112
I0
aI0
aI0
aI0
aI0
aI0
aI0
aI0
aI0
aI0
aI0
aa(lp113
I0
aI0
aI0
aI0
aI0
aI0
aI0
aI0
aI0
aI0
aI0
aa(lp114
I0
aI0
aI0
aI0
aI0
aI0
aI0
aI0
aI0
aI0
aI0
aa(lp115
I0
aI0
aI0
aI0
aI0
aI0
aI0
aI0
aI0
aI0
aI0
aa(lp116
I0
aI0
aI0
aI0
aI0
aI0
aI0
aI0
aI0
aI0
aI0
aa(lp117
I0
aI0
aI0
aI0
aI0
aI0
aI0
aI0
aI0
aI0
aI0
aa(lp118
I0
aI0
aI0
aI0
aI0
aI0
aI0
aI0
aI0
aI0
aI0
aa(lp119
I0
aI0
aI0
aI0
aI0
aI0
aI0
aI0
aI0
aI0
aI0
aa(lp120
I0
aI0
aI0
aI0
aI0
aI0
aI0
aI0
aI0
aI0
aI0
aa(lp121
I0
aI0
aI0
aI0
aI0
aI0
aI0
aI0
aI0
aI0
aI0
aa(lp122
I0
aI0
aI0
aI0
aI0
aI0
aI0
aI0
aI0
aI0
aI0
aa(lp123
I0
aI0
aI0
aI0
aI0
aI0
aI0
aI0
aI0
aI0
aI0
aa(lp124
I0
aI0
aI0
aI0
aI0
aI0
aI0
aI0
aI0
aI0
aI0
aasS'momentum'
p125
(lp126
(lp127
g8
(g12
S'\x89W\xb7\x1c\xddd@\xbf'
p128
tp129
Rp130
ag8
(g12
S'\xdagA\xf0\\K\x1e\xbf'
p131
tp132
Rp133
ag8
(g12
S'9\x84\xf9\xe2\x89\x1e\xb8>'
p134
tp135
Rp136
ag8
(g12
S'\xe5o\xe2\xa6m\xc6\x08\xbf'
p137
tp138
Rp139
ag8
(g12
S"\xf2J\x8c\x1d\x8f\x11'\xbf"
p140
tp141
Rp142
ag8
(g12
S'\x85@\xa9\xb9l\xf1\x19\xbf'
p143
tp144
Rp145
ag8
(g12
S'\x1as\x96!\x9d\x07)?'
p146
tp147
Rp148
ag8
(g12
S'\xfb-bl\xeew;\xbf'
p149
tp150
Rp151
ag8
(g12
S'z$\xe2\xfb\xd7b4?'
p152
tp153
Rp154
ag8
(g12
S'Mo\xfcs\xc9\x18!\xbf'
p155
tp156
Rp157
ag8
(g12
S'0\xae}\x9b\xd6]#\xbf'
p158
tp159
Rp160
aa(lp161
g8
(g12
S'\xe4(N\xe1\xcd?;?'
p162
tp163
Rp164
ag8
(g12
S'\x1cl\xa5ku)\x02?'
p165
tp166
Rp167
ag8
(g12
S'\x05s\xae\xc49\x003?'
p168
tp169
Rp170
ag8
(g12
S'\xbdI\xe0M<\xc1\x1f?'
p171
tp172
Rp173
ag8
(g12
S'\x8a\x17\r8\x9e\x1f\xe5\xbe'
p174
tp175
Rp176
ag8
(g12
S']-\xb8\x04s\x8d\x12\xbf'
p177
tp178
Rp179
ag8
(g12
S'\xcc\x1e\xbb\xa8q\x02\xfc>'
p180
tp181
Rp182
ag8
(g12
S';\x07\xa1"\xbf\xb6\x18?'
p183
tp184
Rp185
ag8
(g12
S'=\x15h\x94+:\xf4>'
p186
tp187
Rp188
ag8
(g12
S'0\xefD\xb2\x04\x99\x04\xbf'
p189
tp190
Rp191
ag8
(g12
S'\x9a\xd1\xf9;\xc7\x87\r\xbf'
p192
tp193
Rp194
aa(lp195
g8
(g12
S"?U\x18A'\x11E?"
p196
tp197
Rp198
ag8
(g12
S'l/\t^\xce\xc2$\xbf'
p199
tp200
Rp201
ag8
(g12
S'\xbd\xe2\x97\x95v\x1a6?'
p202
tp203
Rp204
ag8
(g12
S'\x080|5?\x1a\x0f\xbf'
p205
tp206
Rp207
ag8
(g12
S'\xc0\xa1_1A\xee=?'
p208
tp209
Rp210
ag8
(g12
S'\xe5\x80\xa9x\x86v ?'
p211
tp212
Rp213
ag8
(g12
S'!+\x88%\xf3\xf0X\xbe'
p214
tp215
Rp216
ag8
(g12
S'\xa5\xcd\x04\xe8\xa9\xfa1?'
p217
tp218
Rp219
ag8
(g12
S'g6\xf5\x05y\xaa7?'
p220
tp221
Rp222
ag8
(g12
S'\xad\xb6F\x0eo=\x05?'
p223
tp224
Rp225
ag8
(g12
S'\xb7W<\xe6\xf7\xa1\x1a\xbf'
p226
tp227
Rp228
aa(lp229
g8
(g12
S'\xa3u\xad\x9b\xd9N/\xbf'
p230
tp231
Rp232
ag8
(g12
S'\rt\x91w\xb4_#\xbf'
p233
tp234
Rp235
ag8
(g12
S'6_\xd1$G\xc2\xfb>'
p236
tp237
Rp238
ag8
(g12
S'\xd2\x99*\x88\xe5\xf89?'
p239
tp240
Rp241
ag8
(g12
S'c\xb9\x18I\xa5!/\xbf'
p242
tp243
Rp244
ag8
(g12
S"\xb1\x05\n'\x14\xd8&\xbf"
p245
tp246
Rp247
ag8
(g12
S'\x14S0\xa2p !\xbf'
p248
tp249
Rp250
ag8
(g12
S'\xb1\x94d3:(0?'
p251
tp252
Rp253
ag8
(g12
S'\x98\x88i \x9a\x96/\xbf'
p254
tp255
Rp256
ag8
(g12
S')\x84\x8e\x9f\xfc\x11\x16\xbf'
p257
tp258
Rp259
ag8
(g12
S'@\xe9V+T\\-\xbf'
p260
tp261
Rp262
aa(lp263
g8
(g12
S'\x01\x14\xea\xef\x04\xe15?'
p264
tp265
Rp266
ag8
(g12
S'\xacc\xdfC<\xf4\x10\xbf'
p267
tp268
Rp269
ag8
(g12
S"\xdaNp\xdb'\x184?"
p270
tp271
Rp272
ag8
(g12
S'8C\xe0\xab\xee\xc4\x12?'
p273
tp274
Rp275
ag8
(g12
S'\xfbO\xecB-t0\xbf'
p276
tp277
Rp278
ag8
(g12
S'*Fk\xf0\x1c|.\xbf'
p279
tp280
Rp281
ag8
(g12
S'U\x9a5\x0e\x1d\x930\xbf'
p282
tp283
Rp284
ag8
(g12
S'jo\xd4\xcd>\x8c\x05\xbf'
p285
tp286
Rp287
ag8
(g12
S'"}\xcb\x98=\xfc(?'
p288
tp289
Rp290
ag8
(g12
S'\x1e\nA\xabp~/\xbf'
p291
tp292
Rp293
ag8
(g12
S'\x07\xd8\xbf\x12\x98\x10/\xbf'
p294
tp295
Rp296
aa(lp297
g8
(g12
S'\x81\x86<\x82\x0b\xbc\x0c\xbf'
p298
tp299
Rp300
ag8
(g12
S')\xaf&\xa1U\xa4\x02\xbf'
p301
tp302
Rp303
ag8
(g12
S',\x9e\x81H3\xc8\n?'
p304
tp305
Rp306
ag8
(g12
S'-^\n\xd0\x17\x10%?'
p307
tp308
Rp309
ag8
(g12
S'`\xa7U=\x976#\xbf'
p310
tp311
Rp312
ag8
(g12
S'u\x8b\xcf?\xe4\x96\x13\xbf'
p313
tp314
Rp315
ag8
(g12
S'\n\xd0\xdd*\xd8\xa2\x19\xbf'
p316
tp317
Rp318
ag8
(g12
S'\xf0\x94\x84\xa9r\x1e#?'
p319
tp320
Rp321
ag8
(g12
S'\x17\x91\xe52\x00t \xbf'
p322
tp323
Rp324
ag8
(g12
S'F\x0cS\xe2s\x1e\xf3\xbe'
p325
tp326
Rp327
ag8
(g12
S'M\xd6\xd0\x14\xc5\xed\x1c\xbf'
p328
tp329
Rp330
aa(lp331
g8
(g12
S'\x8d\x9f\xfa\xcc\xc9\xfe\x1e\xbf'
p332
tp333
Rp334
ag8
(g12
S"\xc5\x8an\x12\x89\xba'\xbf"
p335
tp336
Rp337
ag8
(g12
S'Pd\xe0\x7f\x08\xdc"?'
p338
tp339
Rp340
ag8
(g12
S'(\xaeo\xec\xcf\x9e.\xbf'
p341
tp342
Rp343
ag8
(g12
S'A\x996-\xb1\xe5.?'
p344
tp345
Rp346
ag8
(g12
S'\xc8\x11\xa2\xf5\xa8n-?'
p347
tp348
Rp349
ag8
(g12
S"'iW\xa9\x89\xdb0?"
p350
tp351
Rp352
ag8
(g12
S'\x11\xf0?j\xca\xa6-\xbf'
p353
tp354
Rp355
ag8
(g12
S'_\xb2\xfd7\x01G=?'
p356
tp357
Rp358
ag8
(g12
S'\xbeq\x9f\x91\xa7\x14\x02?'
p359
tp360
Rp361
ag8
(g12
S'\x171\x8e\xccJ\xd2\x12?'
p362
tp363
Rp364
aa(lp365
g8
(g12
S'\xe3E$l\xff\xe4C\xbf'
p366
tp367
Rp368
ag8
(g12
S'\x98Rn\xc0\xbb\x94\x1a?'
p369
tp370
Rp371
ag8
(g12
S'\xaf\x91\xc2I\x06\xbd6\xbf'
p372
tp373
Rp374
ag8
(g12
S'\xe3\xede\x12qa\x17\xbf'
p375
tp376
Rp377
ag8
(g12
S'VY\xac\x86q\x1b!\xbf'
p378
tp379
Rp380
ag8
(g12
S'\xb7^\xed?12\xe9\xbe'
p381
tp382
Rp383
ag8
(g12
S'\x08\xd1s\x05\x9b\x1b\x13?'
p384
tp385
Rp386
ag8
(g12
S'\xdb\xe3}\x1d+{*\xbf'
p387
tp388
Rp389
ag8
(g12
S'G\x8c6\xa8\x06y9?'
p390
tp391
Rp392
ag8
(g12
S'\x1c,uE<\xa6\xff>'
p393
tp394
Rp395
ag8
(g12
S'\xbcK\xf8\xad\xacJ\x17\xbf'
p396
tp397
Rp398
aa(lp399
g8
(g12
S'\xa1r\xaf\xf8w\xf3 ?'
p400
tp401
Rp402
ag8
(g12
S'\xe3\x8fbw\xc091?'
p403
tp404
Rp405
ag8
(g12
S'\xd4X\xf5T\xea\xe2\xeb\xbe'
p406
tp407
Rp408
ag8
(g12
S'\xf7\x079,\xdd\x96(\xbf'
p409
tp410
Rp411
ag8
(g12
S'\xd5\xc9)M;d\x14?'
p412
tp413
Rp414
ag8
(g12
S'v"\x03\xab\xc7\xc7\x07?'
p415
tp416
Rp417
ag8
(g12
S'$\xdd\xf4\xd9\x83\xb6\x1d?'
p418
tp419
Rp420
ag8
(g12
S'h\x88\xa1\xa7\xf2\x8f\x1e?'
p421
tp422
Rp423
ag8
(g12
S'W\xeb-R6\xac6?'
p424
tp425
Rp426
ag8
(g12
S'\x12t\xd6\x18\xa4;\x11\xbf'
p427
tp428
Rp429
ag8
(g12
S'\x9d\x07\xb0\x936\xe5!?'
p430
tp431
Rp432
aa(lp433
g8
(g12
S'\xf2\xbb_\xc7\xf8\x947\xbf'
p434
tp435
Rp436
ag8
(g12
S'\xbc\x1e\x17%A\x1f5\xbf'
p437
tp438
Rp439
ag8
(g12
S'D\x0b0\x82V\xd1\x1a?'
p440
tp441
Rp442
ag8
(g12
S'\xfa\xd1\xca\xf5c\xf34?'
p443
tp444
Rp445
ag8
(g12
S'&\xb2W\\7\x84\xcd>'
p446
tp447
Rp448
ag8
(g12
S'\rS^\xf3\xcf\xfd\x13\xbf'
p449
tp450
Rp451
ag8
(g12
S'V\x80a\xf3\xdf\x90\x18\xbf'
p452
tp453
Rp454
ag8
(g12
S'\xba\x82\xff>Vv*?'
p455
tp456
Rp457
ag8
(g12
S'fA\xbcy\\W1\xbf'
p458
tp459
Rp460
ag8
(g12
S'\x1d"c^\xe8\xb4\xe2\xbe'
p461
tp462
Rp463
ag8
(g12
S'\xc9\xfd\xef\xd6n\x0c\xee\xbe'
p464
tp465
Rp466
aa(lp467
g8
(g12
S'{z\xdc\xbd\xe8i+?'
p468
tp469
Rp470
ag8
(g12
S'\xcd\x95\xf9\xa7\xec\xdf)?'
p471
tp472
Rp473
ag8
(g12
S'o+\xbb)/j"?'
p474
tp475
Rp476
ag8
(g12
S'|\x19g\n/&0?'
p477
tp478
Rp479
ag8
(g12
S'\xa3\xe1\x15\xad\x91\x19(\xbf'
p480
tp481
Rp482
ag8
(g12
S'\x8a\xe2\x14\xd0\x9c\xe4 \xbf'
p483
tp484
Rp485
ag8
(g12
S'\xa1\x8f\xd9\xba\xff\xfd\xd1>'
p486
tp487
Rp488
ag8
(g12
S'\x0c\x1e\x8b\x04rM)?'
p489
tp490
Rp491
ag8
(g12
S')\xcd\xcc\x937\xd6)\xbf'
p492
tp493
Rp494
ag8
(g12
S'\xa6x)g\x8e\x83\x06?'
p495
tp496
Rp497
ag8
(g12
S'\xd8\xec\xb7\xad\x7f\xfb!\xbf'
p498
tp499
Rp500
aa(lp501
g8
(g12
S'\x04\xf8\xe1_\xfa\xc7A\xbf'
p502
tp503
Rp504
ag8
(g12
S'\xa9h\xa1\xfa\xfc\xf2\xd9\xbe'
p505
tp506
Rp507
ag8
(g12
S'&V\ru\x85\xda\x1d\xbf'
p508
tp509
Rp510
ag8
(g12
S'\x98\x94\xc4\n\xb0\xb8\x08\xbf'
p511
tp512
Rp513
ag8
(g12
S'\x95S\xea8X\xba\x16\xbf'
p514
tp515
Rp516
ag8
(g12
S'\x16N\x0c\xb3\x15R\x02\xbf'
p517
tp518
Rp519
ag8
(g12
S'g\xfc\xda\x87!\xa9\x1c?'
p520
tp521
Rp522
ag8
(g12
S'\xda\x9fa\xa3\xe5\x182\xbf'
p523
tp524
Rp525
ag8
(g12
S'\xaf\xc9O\xb7\xbd\xd92?'
p526
tp527
Rp528
ag8
(g12
S'\x0b$WBB\x18\x07\xbf'
p529
tp530
Rp531
ag8
(g12
S"'\xcb7\x159\x95 \xbf"
p532
tp533
Rp534
aa(lp535
g8
(g12
S'\xea\x13\xa4\xa8!{B?'
p536
tp537
Rp538
ag8
(g12
S'\xf5\xf7\x8c\xb01\xe8\xfb>'
p539
tp540
Rp541
ag8
(g12
S'\x97O\xcf\x1f]61?'
p542
tp543
Rp544
ag8
(g12
S'0\\0\xb4\x08]\x01?'
p545
tp546
Rp547
ag8
(g12
S'\x891rL\x18k(?'
p548
tp549
Rp550
ag8
(g12
S'\xf8\xdag\xa5\xeb\xc7\x03?'
p551
tp552
Rp553
ag8
(g12
S'^\xa4!\x14\x81\x19\x14?'
p554
tp555
Rp556
ag8
(g12
S'&|W\x86\xc7\x1b\x1d?'
p557
tp558
Rp559
ag8
(g12
S'\xcc\xea92\xab\x9a\x1d?'
p560
tp561
Rp562
ag8
(g12
S'\xca^Z2\xfej\xcd\xbe'
p563
tp564
Rp565
ag8
(g12
S')\xc9=\xb8<\xe1\xf3>'
p566
tp567
Rp568
aa(lp569
g8
(g12
S'\xb1\xffA\xe2\xb8\x89@?'
p570
tp571
Rp572
ag8
(g12
S'\xc8T\xf2\x8bd\r\x10\xbf'
p573
tp574
Rp575
ag8
(g12
S'\xc0\xe6:\xc9\xc7\x7f2?'
p576
tp577
Rp578
ag8
(g12
S'\x87q9\xd4\x07\x80\x05?'
p579
tp580
Rp581
ag8
(g12
S'\xc8\xc3\x97\x80\xda\xfd\x19?'
p582
tp583
Rp584
ag8
(g12
S':"\xbf\x05\\D\xf6\xbe'
p585
tp586
Rp587
ag8
(g12
S'\xb1g6\xa0\xb3\x16\x03?'
p588
tp589
Rp590
ag8
(g12
S'R\x84\xa6$\xe7\x88\x11?'
p591
tp592
Rp593
ag8
(g12
S'bQ\xa9\x12-\xef\x15?'
p594
tp595
Rp596
ag8
(g12
S'\xa7c\x80\xc9X\xbd\x17\xbf'
p597
tp598
Rp599
ag8
(g12
S'\xe1\x8d\xdc\xd0\xd0\x1a\xf9\xbe'
p600
tp601
Rp602
aa(lp603
g8
(g12
S'\xce\xcdC\xed\x0c\xa11?'
p604
tp605
Rp606
ag8
(g12
S'\xea\x84\xe9\xc3z(\xfe>'
p607
tp608
Rp609
ag8
(g12
S'S\xf6\x8d\x18\xde~/?'
p610
tp611
Rp612
ag8
(g12
S'/\x0b\xf9\xf2\xaac%?'
p613
tp614
Rp615
ag8
(g12
S'\xad\x1a{\xd2=>+\xbf'
p616
tp617
Rp618
ag8
(g12
S'x,{\x1b\xf0\xa0"\xbf'
p619
tp620
Rp621
ag8
(g12
S'\x9a\xd9\xd2q\x1fO\x1f\xbf'
p622
tp623
Rp624
ag8
(g12
S'\x06\x92\x06o2.\x06?'
p625
tp626
Rp627
ag8
(g12
S'\\?\x8f\xb0\x85\xe3\x05?'
p628
tp629
Rp630
ag8
(g12
S'\xe0\xa2>\xf8 \xb6\x01\xbf'
p631
tp632
Rp633
ag8
(g12
S'\x8f\xfdgGT\xb20\xbf'
p634
tp635
Rp636
aa(lp637
g8
(g12
S'\xd6\x06$%\x04\xcd3\xbf'
p638
tp639
Rp640
ag8
(g12
S"\xa9\xe5x\xa4\xae-'?"
p641
tp642
Rp643
ag8
(g12
S'\xf4\x9e\x9cQ\xe4\x857\xbf'
p644
tp645
Rp646
ag8
(g12
S'\\\xd2\x9f\xf1\x94\xf7\x1b\xbf'
p647
tp648
Rp649
ag8
(g12
S'!\x15\x05\x83H\xab\x1a\xbf'
p650
tp651
Rp652
ag8
(g12
S'*\xe9\xea\xe1\x11\xf90?'
p653
tp654
Rp655
ag8
(g12
S'?\x84LV\xf2*\x11\xbf'
p656
tp657
Rp658
ag8
(g12
S'\x0b\x1a\xa4\x06{\x95\xb0>'
p659
tp660
Rp661
ag8
(g12
S'\x90Bj<\xf6\xbc2\xbf'
p662
tp663
Rp664
ag8
(g12
S'oB\xc3\xc7\xc4F6?'
p665
tp666
Rp667
ag8
(g12
S'\xcb/\xd8\xacx]\x1d\xbf'
p668
tp669
Rp670
aa(lp671
g8
(g12
S'^\xfa\x17\x861\x01\x18\xbf'
p672
tp673
Rp674
ag8
(g12
S'T\xec\x9d\x1b^~\x13?'
p675
tp676
Rp677
ag8
(g12
S'\xffv*\xcb\x9a\x97\x08?'
p678
tp679
Rp680
ag8
(g12
S'\xd7\xd0\xa7\x91\xb0\xc2+?'
p681
tp682
Rp683
ag8
(g12
S'\x95\x85\x9cbW\xeb&\xbf'
p684
tp685
Rp686
ag8
(g12
S'\xbci]X\x87\xa2\x18\xbf'
p687
tp688
Rp689
ag8
(g12
S'\xddC\xb0\xe4S\x91&\xbf'
p690
tp691
Rp692
ag8
(g12
S'\x00\x930\xf5Vc3?'
p693
tp694
Rp695
ag8
(g12
S'\x1e\xf8,V\x0e\\0\xbf'
p696
tp697
Rp698
ag8
(g12
S'\x05\xb7,\x1e)x\xe9>'
p699
tp700
Rp701
ag8
(g12
S'^\x1c4\xd7Y\x03"\xbf'
p702
tp703
Rp704
aa(lp705
g8
(g12
S'\xd7I\xbe\xffc\xe6/?'
p706
tp707
Rp708
ag8
(g12
S'=\xab\xf5\xf2\xef\xcc$?'
p709
tp710
Rp711
ag8
(g12
S"\xac\x98\xd2\x00$\x07'?"
p712
tp713
Rp714
ag8
(g12
S'\xad\xed\xc5<s=\x14?'
p715
tp716
Rp717
ag8
(g12
S'\x84"\x06\x85\x98\x1f\x13?'
p718
tp719
Rp720
ag8
(g12
S'%\xce\x8c\xc6}\x17\x14\xbf'
p721
tp722
Rp723
ag8
(g12
S'\x16\x88\xd0\x853\xd8#?'
p724
tp725
Rp726
ag8
(g12
S"w1\xf6'\xaa\xbd\xf2\xbe"
p727
tp728
Rp729
ag8
(g12
S'\x83\xe2v\xcfM1@\xbf'
p730
tp731
Rp732
ag8
(g12
S'\xb8\xca+\xdb\xbfp\x08\xbf'
p733
tp734
Rp735
ag8
(g12
S'\xb3\xf4\x806\x84\x8e&?'
p736
tp737
Rp738
aa(lp739
g8
(g12
S'o\xdar\x02B\r\xf1>'
p740
tp741
Rp742
ag8
(g12
S'x,%\xee\xf6`\x1e\xbf'
p743
tp744
Rp745
ag8
(g12
S'\xa5\xa2\xd76\x8d\x84??'
p746
tp747
Rp748
ag8
(g12
S'\x15?u/\xb9\xf4\n?'
p749
tp750
Rp751
ag8
(g12
S'\xc1\x1b\xac\xfd\xda\x8e"\xbf'
p752
tp753
Rp754
ag8
(g12
S']\xe9\xf0\xe3\xaaJ"\xbf'
p755
tp756
Rp757
ag8
(g12
S'"\xb1\x7f\xa4\x07\xce\x1c\xbf'
p758
tp759
Rp760
ag8
(g12
S'g\xdb\x92\xa8\x1f\x90\x02?'
p761
tp762
Rp763
ag8
(g12
S'\x90?\x97\xd1]V \xbf'
p764
tp765
Rp766
ag8
(g12
S'\r,o4Z\xe8\x1a\xbf'
p767
tp768
Rp769
ag8
(g12
S'\xc8\xe3\\!\x81\x02 \xbf'
p770
tp771
Rp772
aa(lp773
g8
(g12
S'b\x18\x1b\xb9\x97\x8c$?'
p774
tp775
Rp776
ag8
(g12
S'\x9d\xa2M;\x0e\xed\x07?'
p777
tp778
Rp779
ag8
(g12
S'\xd50\x10u\xd7U\x04\xbf'
p780
tp781
Rp782
ag8
(g12
S']\x9d\xa6\xa6L\xeb6\xbf'
p783
tp784
Rp785
ag8
(g12
S'S3\xe4\x96\xf6\x9d\x15?'
p786
tp787
Rp788
ag8
(g12
S'\xe0\x1d\x06\xdb]\x19(?'
p789
tp790
Rp791
ag8
(g12
S'\xc1\xd9\xec\xbd\x7f\x89\x10?'
p792
tp793
Rp794
ag8
(g12
S"=\xb9\x05f\xf0\x18'\xbf"
p795
tp796
Rp797
ag8
(g12
S"*\x0b'15\xa74?"
p798
tp799
Rp800
ag8
(g12
S'\xd7\xec}\xbau\xd1\xfd>'
p801
tp802
Rp803
ag8
(g12
S'\xac\xc0\xd4\xa7L\x1e\x13?'
p804
tp805
Rp806
aasS'out'
p807
(lp808
g8
(g12
S'\xc2;\x8e\t0y\xe5?'
p809
tp810
Rp811
ag8
(g12
S'W\xb09pj\xaf\xef?'
p812
tp813
Rp814
ag8
(g12
S'\x13\x8b4Bx\xe3\xef?'
p815
tp816
Rp817
ag8
(g12
S'/L[\x91\xda\xc2\xea?'
p818
tp819
Rp820
ag8
(g12
S'\xa5U\x81\x84\x96Y\xee?'
p821
tp822
Rp823
ag8
(g12
S'\xf6\x08r.\x8a{\xec?'
p824
tp825
Rp826
ag8
(g12
S'\xdbJ{\x91n\xa0\xb5?'
p827
tp828
Rp829
ag8
(g12
S'\xd8\xd3\x87M\xc5\x0c\xe0?'
p830
tp831
Rp832
ag8
(g12
S'\xc0\xa1\x8f=\xb2\x9f\xca?'
p833
tp834
Rp835
ag8
(g12
S'r\xcdL\x03\x8d\xe4\xee?'
p836
tp837
Rp838
ag8
(g12
S'\xae\xff\xe9\x9b\xe7T\xef?'
p839
tp840
Rp841
ag8
(g12
S'F\xa2X ;\x8a\xe3?'
p842
tp843
Rp844
ag8
(g12
S'\xf4\xcd\x03\x94\xcf\xa2\xef?'
p845
tp846
Rp847
ag8
(g12
S'\xfd\xae\xf2\xc9\xa5\xbd\xef?'
p848
tp849
Rp850
ag8
(g12
S'r\xaao\xfc\xfd\xb8\xef?'
p851
tp852
Rp853
ag8
(g12
S'z@h$C\xa2\xde?'
p854
tp855
Rp856
ag8
(g12
S',\xa2\x8b\xe0\x14<\xee?'
p857
tp858
Rp859
ag8
(g12
S'!_\x0e\x92\x1eB\xea?'
p860
tp861
Rp862
ag8
(g12
S'!U\xe2C\xba\xbc\xeb?'
p863
tp864
Rp865
ag8
(g12
S'\xcf5h\xc2\x00\xd0\xc1?'
p866
tp867
Rp868
asba(iLayer
Output_Layer
p869
(dp870
g6
(lp871
g8
(g12
S'@\xaa\xe0zDf\xe2?'
p872
tp873
Rp874
ag8
(g12
S'\xc0\xcbE,\xd6\xd7\xdb\xbf'
p875
tp876
Rp877
asg75
c__main__
derivata_identity
p878
sg77
c__main__
identity
p879
sg79
g80
(g81
(I0
tp880
g83
tp881
Rp882
(I1
(L2L
L21L
tp883
g89
I00
S'\xd5\xd8\xb4\xf1\x07\xab\xe8?\xe5\x89=\xa8"v\n@\xbf\x1c\x84\xa9\xe5-\x01@\'9\xfe\x88\x1b\x82\x08@\xd1Y\xc5 \x96\'\xff?\x02\xc9I\xc0\x9ca\xd6?\xbbl\x8fRL\x8f\xe9?"\xc3\xcfr@\n\xc8?\x0ff\x1c\xf2\xad\\\x03@\xb8\xfb\xe8b\xdc\xa1\xd7\xbf\xcb\x17e\x9f\x04O\x05@\xf7\xc1\xbb\xca\xddD\xf7?5V\x06,4_\x01@\xeb-\x14@n\xbc\x01@\xa9\x84\xb30\xcf\xed\xfb?\xa2\xde7=\xa7O\xe9?\xb1\x9f\xd7\x99\xdb\xb8\xf9?Kp\x98\x11!\xbb\xf8?\xde\xc5$\xfb\x8do\xf7\xbf9l\xf5\x84\xc4\xe4\xed\xbf\x17\x95GT\xaca\xda\xbfu\x05\xf4\xda\xc3\x9b\xf9\xbfbT\x82\x8ft\xa5\xd8?5F\xbc\x9a\x12\xcb\xf5\xbf\xe7\xbc\xbef\xf3l\x03\xc0=\x08\x91b\xe0\x9e\xd4\xbf\\\x99\xd1\xf8\x9fA\xf5\xbfh\x14\xb1\x16&\x92\xd4\xbfNtZ\xd1~w\xfb\xbfMx\x85\xa8lZ\xde?-.\xda\xfe\xf4O\xf9\xbf\r\xc1\x13\x0cp\x01\xc2\xbf\x12\x06\xdf\xa1\x8d\xa1\xe9\xbf\xb6\xfa\xda\x0ef\xbe\xdf?\x85\x96\x03\xf8e@\xfa\xbfa3\x06\xa3\r\x1b\xfb\xbfj\xbb\xd11\xb5\xf6\xf5\xbf\xf0V\xb9\x1e6\x0e\xe1\xbf\x11\x14?\x0b\xff\x86\xdc\xbf7\xba\x0f\xe2\xd0b\x01\xc0{\x8c%\x03\xcb\xec\xf4\xbf7njt\xac%\xf9\xbf'
p884
tp885
bsg94
g80
(g81
(I0
tp886
g83
tp887
Rp888
(I1
(L2L
tp889
g12
I00
S'|\xecM+\xe2.6@\x98w\x84z/A0\xc0'
p890
tp891
bsg101
(lp892
F1.0
ag811
ag814
ag817
ag820
ag823
ag826
ag829
ag832
ag835
ag838
ag841
ag844
ag847
ag850
ag853
ag856
ag859
ag862
ag865
ag868
asg103
(lp893
(lp894
I0
aI0
aI0
aI0
aI0
aI0
aI0
aI0
aI0
aI0
aI0
aI0
aI0
aI0
aI0
aI0
aI0
aI0
aI0
aI0
aI0
aa(lp895
I0
aI0
aI0
aI0
aI0
aI0
aI0
aI0
aI0
aI0
aI0
aI0
aI0
aI0
aI0
aI0
aI0
aI0
aI0
aI0
aI0
aasg125
(lp896
(lp897
g8
(g12
S'\xbf\xaa`\xce\xad\xc79\xbf'
p898
tp899
Rp900
ag8
(g12
S'\xea\xa4\xd8/<\x7f%?'
p901
tp902
Rp903
ag8
(g12
S'\xe1w\xbb\xda\xb1\xb7\x01?'
p904
tp905
Rp906
ag8
(g12
S'f\xc6\x8a@\x80\x83!?'
p907
tp908
Rp909
ag8
(g12
S'\xf0\xc0\x0c\x08\xe8\xf8\xf2\xbe'
p910
tp911
Rp912
ag8
(g12
S'0\xea[\xe5O4\xf0>'
p913
tp914
Rp915
ag8
(g12
S'~\x13\xf6\x15_\xac\x14\xbf'
p916
tp917
Rp918
ag8
(g12
S'\xa8E\xad\x08\xc8\xe50?'
p919
tp920
Rp921
ag8
(g12
S'x\xc9\xbex\x812-?'
p922
tp923
Rp924
ag8
(g12
S'\x167\xa62\xa2\xf1!?'
p925
tp926
Rp927
ag8
(g12
S'\x89\x94\x97$\x17\xa4*?'
p928
tp929
Rp930
ag8
(g12
S'\x85\xea\x858#\x1b\xf1\xbe'
p931
tp932
Rp933
ag8
(g12
S'\x909\xc6\x03{B\x18?'
p934
tp935
Rp936
ag8
(g12
S'\xb6v\x003\xe0B\x0f?'
p937
tp938
Rp939
ag8
(g12
S'\x01s\xa3\x0c^Y\xf8>'
p940
tp941
Rp942
ag8
(g12
S'\xa5\xdb\xee\xec\xe5H\xfa>'
p943
tp944
Rp945
ag8
(g12
S'\x95\t\xef\xd5\x9e\x1f)\xbf'
p946
tp947
Rp948
ag8
(g12
S'\xfe*\xf7\\\xd4T\x01?'
p949
tp950
Rp951
ag8
(g12
S'IW\x19\x11\xfb\xec\xe6>'
p952
tp953
Rp954
ag8
(g12
S'\xd3\xcaC\xe2pl\x96>'
p955
tp956
Rp957
ag8
(g12
S'\xf8<\x0c\x87\xa3\x1b"?'
p958
tp959
Rp960
aa(lp961
g8
(g12
S'\xc88\xffPn#*?'
p962
tp963
Rp964
ag8
(g12
S'Bu\x02\xa2\xc1\\;?'
p965
tp966
Rp967
ag8
(g12
S'0w\xae\xcc\xb9\xe8"\xbf'
p968
tp969
Rp970
ag8
(g12
S'.\xf2\x11s\x9b\xa2A\xbf'
p971
tp972
Rp973
ag8
(g12
S'\x14-\xf7\x837j&?'
p974
tp975
Rp976
ag8
(g12
S'>V;w#}%?'
p977
tp978
Rp979
ag8
(g12
S'\xd1fy\'"# ?'
p980
tp981
Rp982
ag8
(g12
S'\xcb\xe5O9\x88(\xf1\xbe'
p983
tp984
Rp985
ag8
(g12
S'\xff=\xfdnZ\xd16?'
p986
tp987
Rp988
ag8
(g12
S'\x9a\xd6B\x9b\xb6p-?'
p989
tp990
Rp991
ag8
(g12
S'\x15\x8en*a\xac,?'
p992
tp993
Rp994
ag8
(g12
S'\xfa\xdfm&\x8e\x1c\x04\xbf'
p995
tp996
Rp997
ag8
(g12
S'\x98\x16\nIr77?'
p998
tp999
Rp1000
ag8
(g12
S'}\xbe\x82\x02\xdc\xc2+\xbf'
p1001
tp1002
Rp1003
ag8
(g12
S'd}\x03r\x83U-\xbf'
p1004
tp1005
Rp1006
ag8
(g12
S'#\xc28\xc5I\xab#\xbf'
p1007
tp1008
Rp1009
ag8
(g12
S'\x99\x02\xab\xee3z\n?'
p1010
tp1011
Rp1012
ag8
(g12
S'`)?O3\xfb\x1c?'
p1013
tp1014
Rp1015
ag8
(g12
S'\xd90\xd2?\xd5\xb6$?'
p1016
tp1017
Rp1018
ag8
(g12
S'\x89\x138\xf5\x08\xb60?'
p1019
tp1020
Rp1021
ag8
(g12
S'\xe7S\xfa\x15I\xf0(?'
p1022
tp1023
Rp1024
aasg807
(lp1025
g8
(g12
S'|\xecM+\xe2.6@'
p1026
tp1027
Rp1028
ag8
(g12
S'\x98w\x84z/A0\xc0'
p1029
tp1030
Rp1031
asbasS'name'
p1032
S'Net_1_try_3'
p1033
sS'train_x'
p1034
(lp1035
(lp1036
F-1.039079
aF-1.094412
aF-0.96643
aF1.287683
aF0.68774
aF-0.406114
aF-1.855171
aF-1.403138
aF0.930714
aF0.328499
aa(lp1037
F-0.489031
aF-0.24994
aF-0.31203
aF1.161396
aF0.628021
aF0.536463
aF-0.798814
aF-0.659347
aF0.751332
aF0.810764
aa(lp1038
F-0.489031
aF-1.038114
aF-1.204393
aF0.719394
aF1.225214
aF-0.217599
aF-0.869237
aF-1.403138
aF0.27298
aF0.190708
aa(lp1039
F0.061016
aF-0.24994
aF0.163897
aF0.214248
aF0.389144
aF0.065175
aF0.18712
aF-0.144414
aF0.392568
aF1.568611
aa(lp1040
F-0.67238
aF-0.812921
aF-1.144902
aF0.656251
aF0.986337
aF-0.029083
aF-1.362204
aF-1.05985
aF0.751332
aF0.672974
aa(lp1041
F-0.397357
aF1.382708
aF0.937279
aF-1.490618
aF-1.402435
aF-0.783145
aF1.10263
aF1.228739
aF-1.341457
aF-1.187194
aa(lp1042
F1.436135
aF-0.362536
aF0.401861
aF0.782537
aF0.74746
aF2.233103
aF-0.164999
aF-0.316058
aF0.631744
aF0.535184
aa(lp1043
F-0.489031
aF-1.488499
aF-0.847448
aF0.719394
aF0.866898
aF0.724979
aF-1.010085
aF-0.888206
aF1.528653
aF0.259603
aa(lp1044
F0.33604
aF0.425639
aF1.05626
aF0.087962
aF0.269705
aF1.856072
aF0.53924
aF0.542163
aF0.033804
aF0.672974
aa(lp1045
F-0.030658
aF-1.15071
aF-1.085412
aF1.287683
aF0.926617
aF0.347948
aF-0.869237
aF-1.460353
aF1.409065
aF0.604079
aa(lp1046
F-0.764055
aF-0.925518
aF-1.204393
aF1.287683
aF1.046056
aF0.630721
aF-0.446694
aF-1.002635
aF1.409065
aF1.01745
aa(lp1047
F0.427715
aF-0.869219
aF-0.193048
aF0.84568
aF0.807179
aF0.442206
aF-1.150933
aF-0.373273
aF1.050302
aF1.499716
aa(lp1048
F-1.039079
aF-1.15071
aF-1.085412
aF1.161396
aF1.404372
aF0.25369
aF-1.080509
aF-0.888206
aF1.409065
aF0.672974
aa(lp1049
F1.711159
aF0.200446
aF0.461352
aF-1.301188
aF-0.685804
aF-0.311856
aF1.595597
aF0.484948
aF-0.564135
aF-0.842718
aa(lp1050
F0.33604
aF-0.193641
aF-0.252539
aF0.529964
aF0.269705
aF0.630721
aF-0.164999
aF-0.0872
aF0.512156
aF0.741869
aa(lp1051
F-0.67238
aF-0.756623
aF-1.323375
aF0.719394
aF-0.14833
aF-0.59463
aF-1.573476
aF-1.231494
aF0.930714
aF0.879659
aa(lp1052
F0.427715
aF-0.475132
aF-0.549994
aF1.161396
aF0.448863
aF1.007752
aF-0.305847
aF-0.487703
aF0.392568
aF1.706401
aa(lp1053
F1.436135
aF-0.24994
aF0.044915
aF0.214248
aF-0.088611
aF1.667556
aF1.173054
aF0.656592
aF-0.324959
aF0.052918
aa(lp1054
F0.33604
aF-0.081045
aF-0.490503
aF0.656251
aF0.807179
aF0.630721
aF-0.164999
aF-0.487703
aF0.033804
aF0.604079
aa(lp1055
F-0.855729
aF-0.981816
aF-1.025921
aF0.466821
aF1.404372
aF0.159432
aF-1.010085
aF-0.659347
aF0.57195
aF0.604079
aa(lp1056
F-0.030658
aF1.270111
aF0.163897
aF-1.301188
aF-1.223277
aF-0.971661
aF0.53924
aF1.400384
aF-1.221869
aF-1.600565
aa(lp1057
F1.069437
aF0.481937
aF0.520842
aF0.403678
aF-0.208049
aF2.044587
aF0.327968
aF0.427733
aF-0.324959
aF0.259603
aa(lp1058
F1.34446
aF-0.024747
aF0.937279
aF0.340535
aF0.030828
aF1.573298
aF0.116696
aF0.313304
aF0.87092
aF1.01745
aa(lp1059
F-0.489031
aF0.819726
aF1.413206
aF-1.490618
aF-1.402435
aF-0.311856
aF1.313902
aF0.828236
aF-0.803311
aF-1.118299
aa(lp1060
F-0.214007
aF0.256744
aF0.996769
aF0.340535
aF0.68774
aF0.724979
aF0.750511
aF0.542163
aF0.512156
aF0.741869
aa(lp1061
F-0.030658
aF1.157515
aF1.829642
aF-1.238045
aF-1.04412
aF-0.500372
aF1.45475
aF0.828236
aF-1.102281
aF-1.256089
aa(lp1062
F-1.680801
aF-1.094412
aF-0.609484
aF1.603399
aF0.448863
aF0.536463
aF-0.517118
aF-0.888206
aF1.050302
aF0.466289
aa(lp1063
F-0.489031
aF1.101217
aF1.353715
aF-1.364332
aF-1.223277
aF-0.217599
aF1.313902
aF-0.201629
aF-1.341457
aF-1.049404
aa(lp1064
F0.519389
aF-1.207009
aF-0.728466
aF0.84568
aF1.284933
aF1.573298
aF-0.446694
aF-0.544917
aF0.691538
aF1.568611
aa(lp1065
F1.069437
aF0.932322
aF0.996769
aF-0.922329
aF-1.04412
aF-1.537207
aF1.595597
aF-0.602132
aF-0.922899
aF-0.911613
aa(lp1066
F-0.030658
aF-0.644027
aF-0.668975
aF0.782537
aF0.926617
aF1.950329
aF-0.869237
aF-0.716562
aF0.631744
aF1.29303
aa(lp1067
F0.061016
aF-0.587729
aF-0.549994
aF1.22454
aF0.568302
aF0.913494
aF-1.432628
aF-0.659347
aF0.392568
aF1.43082
aa(lp1068
F2.261206
aF0.763428
aF0.699315
aF-0.417184
aF-0.566365
aF0.724979
aF1.173054
aF0.02723
aF-0.564135
aF0.259603
aa(lp1069
F-1.955824
aF-1.15071
aF-1.204393
aF0.466821
aF1.344653
aF0.25369
aF-1.291781
aF-0.773776
aF1.409065
aF0.328499
aa(lp1070
F1.34446
aF1.044918
aF0.223388
aF0.151105
aF0.030828
aF1.950329
aF0.750511
aF0.313304
aF0.033804
aF0.052918
aa(lp1071
F1.34446
aF0.256744
aF0.163897
aF0.719394
aF0.448863
aF0.724979
aF0.116696
aF0.141659
aF0.452362
aF0.466289
aa(lp1072
F1.069437
aF0.36934
aF1.234733
aF-0.7329
aF-1.223277
aF-0.029083
aF1.525173
aF0.828236
aF-1.162075
aF-1.393879
aa(lp1073
F-1.222428
aF-1.601096
aF-1.085412
aF1.03511
aF1.225214
aF-0.123341
aF-1.150933
aF-1.231494
aF1.409065
aF0.259603
aa(lp1074
F-0.947404
aF1.270111
aF1.472697
aF-1.680048
aF-1.462155
aF-0.688887
aF0.398392
aF0.256089
aF-1.221869
aF-0.773823
aa(lp1075
F-0.764055
aF-1.375903
aF-1.739811
aF-0.480327
aF1.344653
aF-1.537207
aF-1.010085
aF-1.288709
aF1.767829
aF0.672974
aa(lp1076
F1.252786
aF1.044918
aF0.877788
aF-0.35404
aF-1.163558
aF-0.217599
aF1.736445
aF0.370518
aF-1.162075
aF-1.80725
aa(lp1077
F-0.397357
aF1.101217
aF0.580333
aF-1.553761
aF-1.342716
aF-1.348691
aF0.257544
aF1.800887
aF-1.042487
aF-1.393879
aa(lp1078
F0.061016
aF-0.587729
aF-0.371521
aF1.413969
aF0.389144
aF0.347948
aF-0.446694
aF-0.830991
aF0.691538
aF1.43082
aa(lp1079
F-0.855729
aF-0.925518
aF-1.501848
aF0.84568
aF1.046056
aF0.159432
aF-1.221357
aF-0.945421
aF0.811126
aF0.535184
aa(lp1080
F0.061016
aF1.101217
aF0.282879
aF-1.174902
aF-1.462155
aF-0.971661
aF0.257544
aF2.20139
aF-1.341457
aF-1.256089
aa(lp1081
F0.061016
aF1.101217
aF0.461352
aF-1.048616
aF-0.9844
aF-2.6683
aF0.53924
aF2.08696
aF-1.341457
aF-1.187194
aa(lp1082
F2.077857
aF0.031551
aF0.044915
aF0.087962
aF0.150267
aF0.25369
aF0.257544
aF0.771022
aF-0.205372
aF0.604079
aa(lp1083
F0.152691
aF1.157515
aF0.401861
aF-1.301188
aF-1.223277
aF-2.197011
aF-0.094575
aF1.743672
aF-1.281663
aF-1.80725
aa(lp1084
F-0.030658
aF-1.15071
aF-1.442357
aF0.403678
aF0.68774
aF0.25369
aF-0.37627
aF-0.830991
aF1.169889
aF0.466289
aa(lp1085
F-0.397357
aF-0.475132
aF-0.787957
aF1.03511
aF0.68774
aF0.724979
aF-0.657966
aF-0.544917
aF0.332774
aF1.361925
aa(lp1086
F-2.047499
aF-1.375903
aF-1.263884
aF0.403678
aF0.209986
aF-1.065918
aF-0.939661
aF-1.345924
aF0.811126
aF0.121813
aa(lp1087
F-1.130753
aF1.382708
aF1.413206
aF-1.048616
aF-1.282997
aF-0.123341
aF1.313902
aF1.057095
aF-1.281663
aF-0.704928
aa(lp1088
F-0.67238
aF-1.15071
aF-1.085412
aF1.477112
aF1.284933
aF0.159432
aF-1.150933
aF-1.345924
aF1.409065
aF0.328499
aa(lp1089
F2.169532
aF0.425639
aF1.05626
aF-0.669756
aF0.030828
aF-0.029083
aF0.750511
aF0.599377
aF-0.324959
aF0.397394
aa(lp1090
F2.169532
aF0.313042
aF0.699315
aF-0.227754
aF-0.387207
aF0.347948
aF0.891359
aF0.256089
aF-0.324959
aF0.121813
aa(lp1091
F-0.030658
aF1.044918
aF1.353715
aF-1.490618
aF-1.342716
aF-1.065918
aF0.609663
aF0.828236
aF-1.341457
aF-1.118299
aa(lp1092
F-0.305682
aF-1.15071
aF-0.728466
aF1.287683
aF0.986337
aF0.724979
aF-0.446694
aF-0.487703
aF1.050302
aF1.086345
aa(lp1093
F-0.214007
aF-0.812921
aF-1.263884
aF1.161396
aF0.926617
aF0.159432
aF-0.446694
aF-0.830991
aF1.110095
aF1.43082
aa(lp1094
F0.794413
aF0.36934
aF0.401861
aF0.214248
aF0.150267
aF1.573298
aF0.398392
aF0.484948
aF-0.564135
aF0.535184
aa(lp1095
F-0.030658
aF-0.306238
aF-0.252539
aF1.03511
aF0.508582
aF0.442206
aF-0.798814
aF-0.373273
aF0.57195
aF1.499716
aa(lp1096
F1.069437
aF0.763428
aF1.115751
aF-0.669756
aF-1.282997
aF-0.123341
aF1.806869
aF0.256089
aF-1.221869
aF-0.842718
aa(lp1097
F-0.947404
aF-0.700325
aF-0.96643
aF1.161396
aF1.404372
aF0.347948
aF-0.869237
aF-1.17428
aF1.349271
aF1.086345
aa(lp1098
F-0.030658
aF-0.475132
aF-1.085412
aF0.593108
aF1.284933
aF0.347948
aF-0.517118
aF-0.830991
aF0.691538
aF1.568611
aa(lp1099
F1.436135
aF0.256744
aF1.234733
aF-0.54347
aF-0.506646
aF-0.029083
aF1.595597
aF0.484948
aF-0.803311
aF-1.118299
aa(lp1100
F2.169532
aF0.594533
aF0.937279
aF-0.290897
aF-0.506646
aF0.159432
aF1.45475
aF0.484948
aF-0.683723
aF-0.015977
aa(lp1101
F-0.397357
aF0.707129
aF0.223388
aF-1.111759
aF-1.223277
aF-1.065918
aF-0.37627
aF1.400384
aF-1.281663
aF-1.118299
aa(lp1102
F-0.214007
aF-0.756623
aF0.044915
aF1.098253
aF0.329424
aF0.25369
aF0.257544
aF-0.716562
aF0.87092
aF0.397394
aa(lp1103
F0.061016
aF1.495304
aF-0.074066
aF-1.743191
aF-0.924681
aF-0.59463
aF0.609663
aF1.400384
aF-0.982693
aF-0.911613
aa(lp1104
F1.069437
aF0.313042
aF0.461352
aF0.214248
aF0.508582
aF1.950329
aF0.53924
aF-0.373273
aF0.033804
aF0.466289
aa(lp1105
F-0.67238
aF-0.925518
aF-1.561339
aF1.098253
aF1.284933
aF-0.406114
aF-1.010085
aF-1.231494
aF1.409065
aF0.328499
aa(lp1106
F-0.397357
aF-1.094412
aF-1.323375
aF0.340535
aF1.046056
aF0.347948
aF-1.150933
aF-1.231494
aF1.409065
aF0.604079
aa(lp1107
F-0.580706
aF-0.869219
aF-1.204393
aF1.22454
aF0.926617
aF-0.029083
aF-1.291781
aF-1.231494
aF1.050302
aF0.190708
aa(lp1108
F-0.305682
aF-1.544798
aF-0.728466
aF0.340535
aF0.74746
aF0.347948
aF-0.869237
aF-1.117065
aF1.528653
aF0.466289
aa(lp1109
F-0.122333
aF-1.038114
aF-0.96643
aF1.287683
aF1.046056
aF1.573298
aF-1.010085
aF-1.002635
aF0.930714
aF1.086345
aa(lp1110
F-0.305682
aF-1.094412
aF-0.906939
aF-0.796043
aF1.523811
aF0.159432
aF-0.798814
aF-1.288709
aF1.409065
aF0.397394
aa(lp1111
F1.069437
aF0.707129
aF1.353715
aF-0.859186
aF-0.685804
aF0.159432
aF2.01814
aF0.656592
aF-0.683723
aF-0.842718
aa(lp1112
F0.061016
aF-1.544798
aF-0.31203
aF0.593108
aF0.807179
aF1.761814
aF-1.150933
aF-0.258844
aF0.930714
aF1.568611
aa(lp1113
F1.069437
aF-0.137343
aF-1.144902
aF0.403678
aF0.508582
aF0.442206
aF0.116696
aF-0.487703
aF0.452362
aF1.775296
aa(lp1114
F1.527809
aF0.538235
aF0.996769
aF-0.669756
aF-0.685804
aF-0.029083
aF1.45475
aF0.542163
aF-0.922899
aF-0.429348
aa(lp1115
F0.061016
aF1.270111
aF1.353715
aF-1.490618
aF-1.223277
aF-0.029083
aF1.243478
aF0.942666
aF-1.461045
aF-1.049404
aa(lp1116
F0.061016
aF-0.869219
aF-0.847448
aF1.161396
aF0.986337
aF0.630721
aF-1.925595
aF-0.487703
aF0.213186
aF0.948555
aa(lp1117
F-0.122333
aF-0.756623
aF-0.371521
aF0.908824
aF0.807179
aF1.573298
aF-0.446694
aF-0.602132
aF0.57195
aF1.844191
aa(lp1118
F-0.030658
aF1.495304
aF1.05626
aF-1.238045
aF-1.342716
aF-0.59463
aF0.609663
aF1.285954
aF-1.221869
aF-1.393879
aa(lp1119
F-0.305682
aF1.833093
aF0.877788
aF-1.680048
aF-0.9844
aF-1.254434
aF0.468816
aF1.285954
aF-1.162075
aF-0.842718
aa(lp1120
F0.061016
aF-0.869219
aF-0.847448
aF1.161396
aF0.68774
aF1.007752
aF-0.587542
aF-0.830991
aF0.751332
aF1.568611
aa(lp1121
F2.169532
aF0.707129
aF1.115751
aF-0.669756
aF-0.208049
aF0.25369
aF0.257544
aF0.484948
aF-0.384753
aF-0.291557
aa(lp1122
F1.252786
aF-0.418834
aF-0.371521
aF0.529964
aF0.508582
aF1.950329
aF-0.164999
aF-0.487703
aF0.512156
aF0.948555
aa(lp1123
F0.152691
aF1.213813
aF1.294224
aF-0.796043
aF-1.342716
aF-0.217599
aF0.680087
aF0.542163
aF-0.922899
aF-1.324984
aa(lp1124
F-0.489031
aF-1.15071
aF-1.085412
aF1.413969
aF0.68774
aF-0.123341
aF-0.446694
aF-0.659347
aF1.289477
aF1.568611
aa(lp1125
F1.619484
aF0.313042
aF1.175242
aF-0.35404
aF-0.446927
aF0.536463
aF1.384326
aF0.427733
aF-0.02599
aF0.052918
aa(lp1126
F2.352881
aF0.538235
aF1.05626
aF-0.290897
aF-1.103839
aF0.724979
aF1.313902
aF0.542163
aF-0.324959
aF-0.291557
aa(lp1127
F-0.122333
aF1.382708
aF0.401861
aF-0.922329
aF-0.924681
aF-1.254434
aF0.327968
aF1.514813
aF-1.341457
aF-1.393879
aa(lp1128
F-0.67238
aF-1.207009
aF-1.382866
aF0.087962
aF1.404372
aF-0.59463
aF-0.869237
aF-1.117065
aF0.930714
aF0.672974
aa(lp1129
F1.161111
aF0.481937
aF0.877788
aF0.466821
aF-0.028891
aF1.761814
aF0.891359
aF0.771022
aF-0.265166
aF0.672974
aa(lp1130
F-0.122333
aF1.101217
aF0.877788
aF-1.616904
aF-1.282997
aF-1.160176
aF0.398392
aF0.942666
aF-1.341457
aF-1.393879
aa(lp1131
F-0.489031
aF-0.869219
aF-1.204393
aF0.214248
aF1.464091
aF0.159432
aF-0.587542
aF-1.231494
aF0.691538
aF0.672974
aa(lp1132
F-0.855729
aF-0.925518
aF-0.728466
aF1.729685
aF1.523811
aF-0.971661
aF-1.150933
aF-0.716562
aF0.811126
aF0.810764
aa(lp1133
F1.252786
aF0.650831
aF1.05626
aF-0.922329
aF-0.506646
aF0.159432
aF1.313902
aF0.771022
aF-0.683723
aF-1.187194
aa(lp1134
F1.619484
aF0.481937
aF0.580333
aF-0.796043
aF-0.566365
aF0.819237
aF0.680087
aF0.313304
aF-0.982693
aF-0.291557
aa(lp1135
F-0.67238
aF-0.981816
aF-1.501848
aF0.277392
aF0.508582
aF-0.217599
aF-1.291781
aF-1.231494
aF1.050302
aF0.672974
aa(lp1136
F-1.772475
aF-1.319605
aF-1.204393
aF0.529964
aF0.389144
aF-0.688887
aF-0.869237
aF-1.288709
aF1.588447
aF0.397394
aa(lp1137
F1.252786
aF-0.024747
aF-0.847448
aF0.277392
aF0.508582
aF1.950329
aF0.18712
aF-0.029985
aF0.392568
aF0.259603
aa(lp1138
F0.061016
aF-0.024747
aF0.104406
aF0.151105
aF0.030828
aF1.479041
aF0.046273
aF-0.659347
aF0.512156
aF0.672974
aa(lp1139
F-2.139173
aF-1.319605
aF-1.739811
aF0.656251
aF0.68774
aF-0.406114
aF-1.291781
aF-1.288709
aF1.648241
aF0.466289
aa(lp1140
F-0.67238
aF-0.756623
aF-1.620829
aF1.603399
aF0.448863
aF-0.217599
aF-1.080509
aF-0.602132
aF1.169889
aF0.052918
aa(lp1141
F-2.230848
aF-1.488499
aF-0.96643
aF0.971967
aF0.150267
aF-0.311856
aF-1.150933
aF-1.231494
aF0.87092
aF0.259603
aa(lp1142
F-0.305682
aF1.157515
aF1.829642
aF-1.238045
aF-1.462155
aF-1.631465
aF1.10263
aF0.713807
aF-1.221869
aF-1.324984
aa(lp1143
F1.619484
aF0.087849
aF0.104406
aF0.529964
aF-0.446927
aF1.479041
aF0.750511
aF0.427733
aF-0.145578
aF-0.015977
aa(lp1144
F0.427715
aF-0.700325
aF-0.431012
aF0.529964
aF1.464091
aF0.724979
aF-1.291781
aF-0.945421
aF0.87092
aF0.466289
aa(lp1145
F-0.305682
aF-0.700325
aF-0.906939
aF1.413969
aF0.866898
aF0.347948
aF-1.010085
aF-0.830991
aF0.930714
aF1.01745
aa(lp1146
F-0.580706
aF0.538235
aF0.639824
aF-0.227754
aF0.389144
aF1.10201
aF0.116696
aF0.370518
aF0.27298
aF1.01745
aa(lp1147
F1.619484
aF1.044918
aF0.996769
aF-0.922329
aF-0.566365
aF-0.311856
aF0.750511
aF0.656592
aF-0.922899
aF-0.222662
aa(lp1148
F-0.489031
aF-1.375903
aF-1.204393
aF1.477112
aF1.404372
aF-0.406114
aF-0.798814
aF-1.231494
aF0.87092
aF0.328499
aa(lp1149
F0.061016
aF-1.15071
aF-0.847448
aF1.161396
aF1.225214
aF0.25369
aF-1.010085
aF-1.117065
aF0.691538
aF0.328499
aa(lp1150
F-0.67238
aF-1.094412
aF-1.620829
aF0.529964
aF1.404372
aF-0.123341
aF-1.221357
aF-1.288709
aF1.468859
aF0.328499
aa(lp1151
F0.061016
aF-1.319605
aF-0.668975
aF1.287683
aF0.926617
aF0.25369
aF-0.587542
aF-0.888206
aF0.811126
aF1.637506
aa(lp1152
F-0.947404
aF-0.812921
aF-0.490503
aF1.287683
aF1.284933
aF1.007752
aF-0.305847
aF-0.487703
aF0.631744
aF1.706401
aa(lp1153
F1.436135
aF0.256744
aF0.461352
aF0.277392
aF-0.446927
aF1.667556
aF0.18712
aF0.542163
aF-0.623929
aF-0.222662
aa(lp1154
F-1.314102
aF-0.812921
aF-1.085412
aF0.84568
aF0.389144
aF-2.197011
aF-1.291781
aF-0.659347
aF0.87092
aF0.604079
aa(lp1155
F0.061016
aF-1.038114
aF-1.144902
aF0.782537
aF1.284933
aF-0.783145
aF-0.939661
aF-0.830991
aF1.289477
aF0.259603
aa(lp1156
F-0.580706
aF-0.53143
aF-0.371521
aF1.03511
aF0.74746
aF1.007752
aF-0.305847
aF-1.002635
aF0.691538
aF1.706401
aa(lp1157
F0.794413
aF0.538235
aF0.163897
aF0.466821
aF0.74746
aF0.442206
aF0.18712
aF-0.316058
aF0.631744
aF0.466289
aa(lp1158
F-0.305682
aF0.481937
aF0.461352
aF-1.553761
aF-1.402435
aF-1.725722
aF0.257544
aF2.08696
aF-1.162075
aF-1.531669
aa(lp1159
F-0.67238
aF-0.475132
aF-0.906939
aF1.413969
aF1.046056
aF0.724979
aF-1.010085
aF-0.602132
aF0.930714
aF1.43082
aa(lp1160
F0.519389
aF0.650831
aF1.413206
aF-0.985472
aF-1.462155
aF-0.500372
aF1.45475
aF0.656592
aF-0.743517
aF-0.980509
aa(lp1161
F-0.122333
aF-0.925518
aF-1.263884
aF0.971967
aF1.344653
aF0.159432
aF-0.305847
aF-1.345924
aF0.691538
aF0.741869
aa(lp1162
F-0.030658
aF-1.319605
aF-0.728466
aF0.908824
aF1.284933
aF0.724979
aF-0.446694
aF-0.830991
aF1.648241
aF1.01745
aa(lp1163
F-0.030658
aF1.213813
aF1.353715
aF-0.985472
aF-1.223277
aF-0.500372
aF-0.024151
aF0.599377
aF-1.221869
aF-1.187194
aa(lp1164
F-0.214007
aF1.382708
aF1.234733
aF-1.238045
aF-1.462155
aF-0.217599
aF0.609663
aF1.400384
aF-1.221869
aF-1.462774
aa(lp1165
F-1.314102
aF-1.432201
aF-0.96643
aF0.719394
aF0.628021
aF-0.029083
aF-0.869237
aF-1.231494
aF0.87092
aF0.397394
aa(lp1166
F1.986182
aF0.425639
aF0.282879
aF-0.227754
aF-0.327488
aF0.630721
aF0.750511
aF-0.258844
aF-0.564135
aF0.397394
aa(lp1167
F-1.405777
aF-1.432201
aF-1.620829
aF0.719394
aF1.284933
aF-0.029083
aF-1.503052
aF-1.05985
aF1.289477
aF0.397394
aa(lp1168
F-0.030658
aF0.819726
aF0.163897
aF-0.985472
aF-1.521874
aF-1.254434
aF-0.37627
aF1.514813
aF-1.341457
aF-1.324984
aa(lp1169
F-0.764055
aF-1.094412
aF-0.96643
aF1.413969
aF0.986337
aF0.630721
aF-1.010085
aF-0.888206
aF1.409065
aF0.741869
aa(lp1170
F-0.397357
aF-1.094412
aF-0.431012
aF1.287683
aF0.807179
aF1.384783
aF-0.235423
aF-1.231494
aF0.57195
aF1.637506
aa(lp1171
F-0.489031
aF1.833093
aF0.163897
aF-0.985472
aF-0.924681
aF-1.160176
aF0.046273
aF1.343169
aF-1.162075
aF-1.187194
aa(lp1172
F0.794413
aF0.650831
aF0.699315
aF0.087962
aF-0.028891
aF1.950329
aF1.10263
aF0.370518
aF0.751332
aF0.604079
aa(lp1173
F0.152691
aF-0.24994
aF-0.193048
aF0.656251
aF0.68774
aF1.667556
aF-0.305847
aF-0.602132
aF0.631744
aF0.879659
aa(lp1174
F-0.030658
aF-0.925518
aF-0.371521
aF0.908824
aF0.448863
aF0.819237
aF-0.446694
aF-0.487703
aF0.751332
aF0.810764
aa(lp1175
F1.619484
aF0.200446
aF0.461352
aF-0.417184
aF0.269705
aF0.819237
aF0.609663
aF0.484948
aF0.392568
aF0.879659
aa(lp1176
F0.061016
aF1.326409
aF0.044915
aF-0.922329
aF-1.04412
aF-1.725722
aF0.327968
aF1.457598
aF-1.461045
aF-1.187194
aa(lp1177
F-0.030658
aF-0.193641
aF0.163897
aF0.340535
aF0.030828
aF1.667556
aF0.18712
aF-1.05985
aF0.631744
aF1.29303
aa(lp1178
F-1.405777
aF-1.038114
aF-1.085412
aF0.277392
aF0.568302
aF-0.217599
aF-1.080509
aF-1.403138
aF0.811126
aF0.328499
aa(lp1179
F-1.497451
aF-0.925518
aF-0.906939
aF0.340535
aF0.68774
aF-0.029083
aF-1.573476
aF-1.288709
aF1.468859
aF0.259603
aa(lp1180
F-0.214007
aF0.876024
aF0.877788
aF-1.111759
aF-1.04412
aF-1.065918
aF0.468816
aF1.743672
aF-0.803311
aF-1.462774
aa(lp1181
F-0.214007
aF-0.700325
aF-1.144902
aF0.340535
aF0.986337
aF1.290525
aF-1.150933
aF-0.659347
aF0.213186
aF1.844191
aa(lp1182
F-0.397357
aF-0.53143
aF-0.252539
aF0.593108
aF0.508582
aF1.10201
aF-0.024151
aF-0.373273
aF-0.922899
aF0.259603
aa(lp1183
F-0.214007
aF-0.362536
aF-0.014576
aF0.466821
aF0.269705
aF1.856072
aF0.53924
aF-0.201629
aF0.153392
aF0.741869
aa(lp1184
F0.794413
aF-0.306238
aF-0.193048
aF0.908824
aF0.448863
aF0.724979
aF-0.305847
aF-0.487703
aF-0.205372
aF1.29303
aa(lp1185
F-0.489031
aF-0.475132
aF-0.133557
aF1.161396
aF0.389144
aF1.290525
aF0.046273
aF-1.231494
aF0.213186
aF0.397394
aa(lp1186
F0.152691
aF-0.53143
aF-0.787957
aF1.161396
aF0.74746
aF0.536463
aF-0.869237
aF-0.945421
aF0.512156
aF0.879659
aa(lp1187
F2.169532
aF0.481937
aF0.639824
aF-0.922329
aF-0.446927
aF0.630721
aF1.384326
aF0.313304
aF-0.504341
aF-0.291557
aa(lp1188
F-0.122333
aF0.707129
aF1.353715
aF-1.174902
aF-1.04412
aF-0.783145
aF1.595597
aF0.656592
aF-1.221869
aF-0.842718
aa(lp1189
F0.977762
aF-1.319605
aF-0.906939
aF0.782537
aF0.448863
aF0.913494
aF-1.855171
aF-0.945421
aF-0.085784
aF1.775296
aa(lp1190
F-0.67238
aF0.256744
aF0.461352
aF0.087962
aF0.508582
aF2.044587
aF0.257544
aF-0.029985
aF-0.205372
aF0.879659
aa(lp1191
F-0.305682
aF-1.263307
aF-0.371521
aF1.22454
aF0.807179
aF0.25369
aF-0.517118
aF-1.231494
aF0.57195
aF1.01745
aa(lp1192
F-0.030658
aF0.707129
aF1.770151
aF-1.238045
aF-1.462155
aF-0.783145
aF1.525173
aF0.713807
aF-1.102281
aF-0.980509
aa(lp1193
F0.794413
aF-0.24994
aF-0.847448
aF0.214248
aF0.74746
aF0.630721
aF-0.446694
aF-0.373273
aF0.213186
aF1.43082
aa(lp1194
F-1.222428
aF0.819726
aF1.353715
aF-1.301188
aF-1.402435
aF-0.311856
aF1.736445
aF0.656592
aF-0.803311
aF-0.842718
aa(lp1195
F1.436135
aF0.200446
aF0.223388
aF0.277392
aF0.389144
aF0.819237
aF0.18712
aF0.484948
aF0.27298
aF1.29303
aa(lp1196
F1.34446
aF0.36934
aF0.461352
aF0.403678
aF-1.04412
aF2.044587
aF0.257544
aF0.542163
aF-0.922899
aF0.328499
aa(lp1197
F-0.030658
aF0.819726
aF1.472697
aF-1.048616
aF-1.342716
aF-0.59463
aF1.595597
aF0.713807
aF-1.042487
aF-0.980509
aa(lp1198
F0.977762
aF-0.081045
aF-0.371521
aF0.971967
aF0.329424
aF1.667556
aF-0.024151
aF-0.029985
aF0.452362
aF1.43082
aa(lp1199
F0.061016
aF0.763428
aF1.472697
aF-1.238045
aF-1.342716
aF-1.160176
aF1.45475
aF0.713807
aF-1.162075
aF-1.324984
aa(lp1200
F0.977762
aF0.425639
aF0.818297
aF-0.101468
aF-0.387207
aF-0.311856
aF0.680087
aF0.427733
aF-0.205372
aF-0.498243
aa(lp1201
F-0.397357
aF1.833093
aF0.818297
aF-0.796043
aF-1.342716
aF-1.160176
aF0.18712
aF1.343169
aF-1.162075
aF-1.118299
aa(lp1202
F-0.305682
aF-0.644027
aF-1.263884
aF0.656251
aF0.74746
aF1.573298
aF-0.72839
aF-0.773776
aF0.631744
aF1.844191
aa(lp1203
F-0.397357
aF1.495304
aF1.234733
aF-1.553761
aF-1.04412
aF-0.217599
aF0.680087
aF1.11431
aF-1.341457
aF-1.187194
aa(lp1204
F0.427715
aF-0.700325
aF-0.728466
aF1.350826
aF0.74746
aF1.856072
aF-0.164999
aF-0.716562
aF0.691538
aF1.499716
aa(lp1205
F2.261206
aF0.594533
aF0.520842
aF-0.669756
aF-0.506646
aF0.819237
aF1.525173
aF-0.430488
aF-1.221869
aF-0.360453
aa(lp1206
F-2.689221
aF-0.981816
aF-1.085412
aF0.529964
aF0.986337
aF-0.123341
aF-1.010085
aF-1.403138
aF1.648241
aF0.328499
aa(lp1207
F1.619484
aF0.594533
aF0.401861
aF-0.796043
aF-1.04412
aF-0.311856
aF1.595597
aF0.484948
aF-0.683723
aF-0.636033
aa(lp1208
F1.619484
aF1.044918
aF1.115751
aF-0.54347
aF-0.9844
aF-0.500372
aF1.10263
aF0.656592
aF-1.102281
aF-0.429348
aa(lp1209
F1.619484
aF0.481937
aF1.05626
aF-0.227754
aF-0.446927
aF-0.59463
aF1.45475
aF0.771022
aF-0.205372
aF-1.324984
aa(lp1210
F1.436135
aF0.087849
aF0.877788
aF0.024819
aF-0.028891
aF0.819237
aF0.468816
aF0.542163
aF-0.743517
aF-1.118299
aa(lp1211
F-1.222428
aF-1.601096
aF-1.085412
aF1.03511
aF0.68774
aF-0.311856
aF-1.221357
aF-1.345924
aF1.050302
aF-0.842718
aa(lp1212
F1.069437
aF0.594533
aF1.353715
aF-0.859186
aF-0.685804
aF0.159432
aF2.01814
aF0.656592
aF-0.683723
aF-0.704928
aa(lp1213
F-0.489031
aF0.425639
aF1.591678
aF-1.553761
aF-1.402435
aF-0.783145
aF0.680087
aF0.084445
aF-1.162075
aF-1.462774
aa(lp1214
F0.061016
aF0.594533
aF1.948624
aF-1.680048
aF-1.223277
aF-0.59463
aF1.173054
aF0.99988
aF-0.863105
aF-1.256089
aa(lp1215
F-0.030658
aF-0.756623
aF-1.025921
aF0.719394
aF1.404372
aF-0.406114
aF-0.939661
aF-1.002635
aF0.990508
aF0.466289
aa(lp1216
F-0.397357
aF1.833093
aF0.996769
aF-0.922329
aF-1.223277
aF-1.914238
aF-0.164999
aF1.400384
aF-1.221869
aF-0.980509
aa(lp1217
F-0.489031
aF-0.981816
aF-0.906939
aF0.656251
aF0.68774
aF0.159432
aF-0.587542
aF-1.231494
aF1.468859
aF0.328499
aa(lp1218
F2.352881
aF0.481937
aF0.401861
aF-0.480327
aF-0.446927
aF0.724979
aF1.45475
aF0.02723
aF-0.623929
aF-0.704928
aa(lp1219
F-1.039079
aF-0.812921
aF-0.96643
aF0.593108
aF1.284933
aF0.442206
aF-1.221357
aF-0.945421
aF1.409065
aF0.328499
aa(lp1220
F0.061016
aF1.157515
aF1.770151
aF-1.174902
aF-1.282997
aF-1.160176
aF1.032206
aF0.542163
aF-0.922899
aF-1.531669
aa(lp1221
F0.061016
aF-0.081045
aF0.104406
aF0.087962
aF0.389144
aF0.724979
aF-0.164999
aF-0.716562
aF0.452362
aF1.29303
aa(lp1222
F0.33604
aF1.270111
aF0.461352
aF-1.490618
aF-1.282997
aF-1.160176
aF0.257544
aF1.514813
aF-1.162075
aF-1.256089
aa(lp1223
F0.061016
aF-0.812921
aF-1.501848
aF0.782537
aF0.74746
aF-0.123341
aF-0.869237
aF-0.830991
aF0.811126
aF0.604079
aa(lp1224
F0.886087
aF0.425639
aF1.05626
aF-0.796043
aF-0.805242
aF-0.123341
aF1.45475
aF0.484948
aF-0.863105
aF-1.324984
aa(lp1225
F-1.86415
aF1.833093
aF0.520842
aF-0.985472
aF-0.924681
aF-1.442949
aF0.046273
aF1.457598
aF-1.162075
aF-0.980509
aa(lp1226
F-0.305682
aF-1.488499
aF-0.847448
aF1.540256
aF0.986337
aF0.347948
aF-0.869237
aF-0.659347
aF0.930714
aF0.604079
aa(lp1227
F0.427715
aF-1.038114
aF-0.074066
aF1.098253
aF0.568302
aF1.007752
aF-0.235423
aF-0.830991
aF0.631744
aF1.568611
aa(lp1228
F-0.305682
aF0.538235
aF0.34237
aF-1.364332
aF-1.342716
aF-1.442949
aF-0.657966
aF1.972531
aF-1.221869
aF-1.118299
aa(lp1229
F2.352881
aF0.425639
aF0.163897
aF0.593108
aF0.329424
aF0.724979
aF0.680087
aF0.198874
aF0.512156
aF0.672974
aa(lp1230
F0.33604
aF0.707129
aF1.234733
aF-0.859186
aF-1.342716
aF-0.029083
aF1.666021
aF0.942666
aF-0.803311
aF-1.324984
aa(lp1231
F0.702738
aF-0.869219
aF-0.193048
aF0.782537
aF0.866898
aF0.819237
aF-0.446694
aF-1.05985
aF0.631744
aF1.637506
aa(lp1232
F-0.122333
aF0.819726
aF0.104406
aF-1.743191
aF-1.103839
aF-1.442949
aF0.18712
aF2.08696
aF-1.341457
aF-1.324984
aa(lp1233
F-0.580706
aF-1.15071
aF-0.847448
aF1.350826
aF1.404372
aF0.159432
aF-1.221357
aF-1.231494
aF1.528653
aF0.741869
aa(lp1234
F-0.489031
aF1.270111
aF0.461352
aF-0.859186
aF-1.462155
aF-1.537207
aF0.046273
aF1.686457
aF-1.162075
aF-1.049404
aa(lp1235
F-0.030658
aF1.326409
aF1.115751
aF-1.174902
aF-0.9844
aF-0.59463
aF0.53924
aF0.828236
aF-1.162075
aF-1.118299
aa(lp1236
F2.077857
aF-0.081045
aF0.937279
aF-0.164611
aF-0.088611
aF0.347948
aF0.680087
aF-0.0872
aF-0.444547
aF0.672974
aa(lp1237
F-0.489031
aF-1.375903
aF-1.144902
aF0.782537
aF1.225214
aF0.25369
aF-1.291781
aF-0.716562
aF0.751332
aF0.466289
aa(lp1238
F-1.222428
aF-0.925518
aF-0.96643
aF1.350826
aF0.68774
aF-0.500372
aF-1.010085
aF-1.231494
aF1.468859
aF-0.980509
aa(lp1239
F1.252786
aF0.087849
aF0.877788
aF-0.417184
aF0.150267
aF0.630721
aF0.257544
aF0.484948
aF-0.324959
aF-0.842718
aa(lp1240
F1.436135
aF0.650831
aF1.115751
aF-0.54347
aF-0.626084
aF-0.029083
aF1.595597
aF0.484948
aF-0.922899
aF-0.773823
aa(lp1241
F-0.67238
aF1.270111
aF0.401861
aF-1.301188
aF-1.402435
aF-1.631465
aF0.327968
aF1.858102
aF-1.102281
aF-0.980509
aa(lp1242
F-0.030658
aF-0.700325
aF-1.620829
aF0.719394
aF1.225214
aF1.10201
aF-0.37627
aF-1.05985
aF0.631744
aF1.706401
aa(lp1243
F1.252786
aF0.36934
aF0.461352
aF-0.417184
aF-0.566365
aF0.536463
aF0.820935
aF0.713807
aF-0.085784
aF-1.118299
aa(lp1244
F0.33604
aF-0.53143
aF-0.787957
aF0.656251
aF0.628021
aF1.196267
aF-0.939661
aF-0.373273
aF0.093598
aF1.568611
aa(lp1245
F-0.489031
aF-1.207009
aF-1.323375
aF1.287683
aF1.284933
aF-0.029083
aF-1.855171
aF-0.888206
aF0.57195
aF0.672974
aa(lp1246
F1.436135
aF0.256744
aF0.937279
aF-0.038324
aF-0.446927
aF-0.500372
aF1.173054
aF0.427733
aF-0.863105
aF0.121813
aa(lp1247
F-1.039079
aF-1.038114
aF-1.799302
aF0.84568
aF0.926617
aF-0.217599
aF-1.010085
aF-1.345924
aF1.409065
aF0.604079
aa(lp1248
F0.061016
aF-1.15071
aF-1.263884
aF0.908824
aF1.464091
aF0.065175
aF-1.150933
aF-1.05985
aF0.153392
aF0.948555
aa(lp1249
F0.33604
aF0.763428
aF1.115751
aF-1.238045
aF-0.685804
aF-0.029083
aF1.595597
aF0.599377
aF-1.341457
aF-0.360453
aa(lp1250
F0.977762
aF-0.475132
aF-0.193048
aF0.214248
aF0.508582
aF1.950329
aF0.53924
aF-0.029985
aF0.093598
aF1.086345
aa(lp1251
F0.152691
aF-0.53143
aF-0.490503
aF1.161396
aF1.284933
aF1.573298
aF-0.446694
aF-0.830991
aF0.512156
aF1.706401
aa(lp1252
F-1.222428
aF-1.038114
aF-0.371521
aF1.413969
aF1.046056
aF0.913494
aF-0.72839
aF-0.830991
aF0.691538
aF1.086345
aa(lp1253
F2.077857
aF0.650831
aF0.937279
aF0.024819
aF-1.04412
aF0.25369
aF1.384326
aF0.313304
aF-0.444547
aF-0.015977
aa(lp1254
F0.061016
aF1.776795
aF0.877788
aF-1.364332
aF-1.462155
aF-1.914238
aF0.116696
aF1.400384
aF-1.221869
aF-1.324984
aa(lp1255
F0.611064
aF-0.137343
aF-0.074066
aF0.466821
aF0.389144
aF1.007752
aF-0.235423
aF-0.830991
aF0.392568
aF1.43082
aa(lp1256
F-0.030658
aF-0.644027
aF-0.96643
aF1.413969
aF0.807179
aF1.007752
aF-0.37627
aF-0.773776
aF0.87092
aF1.29303
aa(lp1257
F-0.305682
aF-0.925518
aF-1.144902
aF0.593108
aF1.404372
aF-0.500372
aF-1.010085
aF-1.288709
aF1.528653
aF0.604079
aa(lp1258
F-0.122333
aF-0.812921
aF-1.025921
aF1.287683
aF0.68774
aF0.724979
aF-0.517118
aF-0.487703
aF0.512156
aF1.637506
aa(lp1259
F1.436135
aF0.707129
aF0.580333
aF0.529964
aF-0.924681
aF0.25369
aF0.820935
aF0.427733
aF-0.324959
aF0.604079
aa(lp1260
F-0.397357
aF1.101217
aF0.877788
aF-0.922329
aF-0.924681
aF-0.59463
aF0.468816
aF1.514813
aF-0.743517
aF-1.324984
aa(lp1261
F-0.580706
aF-0.981816
aF-0.787957
aF1.098253
aF0.807179
aF0.724979
aF-1.080509
aF-0.716562
aF1.468859
aF0.672974
aa(lp1262
F0.886087
aF-0.925518
aF0.104406
aF-0.35404
aF0.568302
aF1.667556
aF-0.37627
aF-0.0872
aF0.093598
aF0.741869
aa(lp1263
F0.152691
aF-1.038114
aF-0.787957
aF0.908824
aF1.165495
aF0.536463
aF-0.72839
aF-0.487703
aF0.093598
aF0.672974
aa(lp1264
F0.061016
aF1.101217
aF1.353715
aF-1.364332
aF-1.342716
aF-0.406114
aF1.595597
aF0.771022
aF-1.221869
aF-0.842718
aa(lp1265
F-0.489031
aF1.044918
aF0.996769
aF-1.301188
aF-1.223277
aF-0.971661
aF0.398392
aF1.629243
aF-0.803311
aF-0.842718
aa(lp1266
F-1.130753
aF1.6079
aF0.223388
aF-1.427475
aF-1.223277
aF-1.160176
aF-0.37627
aF1.457598
aF-1.281663
aF-0.842718
aa(lp1267
F-1.222428
aF-1.375903
aF-1.204393
aF0.214248
aF0.68774
aF-0.688887
aF-1.010085
aF-1.345924
aF1.289477
aF0.121813
aa(lp1268
F-0.030658
aF1.213813
aF1.353715
aF-1.174902
aF-1.462155
aF-0.688887
aF0.609663
aF0.656592
aF-0.922899
aF-1.66946
aa(lp1269
F0.794413
aF0.313042
aF0.34237
aF0.214248
aF0.568302
aF2.32736
aF-0.024151
aF-1.117065
aF0.153392
aF1.15524
aa(lp1270
F0.33604
aF0.876024
aF1.05626
aF-0.669756
aF-0.745523
aF-0.217599
aF1.525173
aF0.713807
aF-1.341457
aF-0.567138
aa(lp1271
F-0.305682
aF-0.981816
aF-0.847448
aF0.403678
aF1.046056
aF0.159432
aF-0.72839
aF-1.231494
aF0.153392
aF0.604079
aa(lp1272
F-0.397357
aF0.98862
aF0.401861
aF-1.364332
aF-1.342716
aF-1.348691
aF0.257544
aF2.08696
aF-1.281663
aF-1.66946
aa(lp1273
F1.34446
aF0.313042
aF0.104406
aF0.340535
aF0.030828
aF0.819237
aF0.609663
aF-0.029985
aF0.033804
aF0.672974
aa(lp1274
F-0.489031
aF-0.756623
aF-1.085412
aF1.350826
aF1.464091
aF0.065175
aF-1.150933
aF-0.888206
aF-0.205372
aF0.672974
aa(lp1275
F2.261206
aF0.594533
aF0.520842
aF0.087962
aF-1.402435
aF0.159432
aF0.961783
aF0.427733
aF-0.444547
aF-0.222662
aa(lp1276
F-0.214007
aF1.439006
aF1.234733
aF-1.111759
aF-1.04412
aF-0.311856
aF0.53924
aF0.713807
aF-1.102281
aF-0.980509
aa(lp1277
F-0.67238
aF-1.038114
aF-1.263884
aF0.782537
aF1.404372
aF-0.406114
aF-0.939661
aF-1.231494
aF0.87092
aF0.328499
aa(lp1278
F0.977762
aF-0.193641
aF0.104406
aF0.340535
aF0.508582
aF2.044587
aF0.18712
aF-0.602132
aF0.452362
aF1.15524
aa(lp1279
F0.152691
aF1.382708
aF1.353715
aF-1.174902
aF-1.103839
aF-0.500372
aF0.609663
aF0.828236
aF-1.341457
aF-0.980509
aa(lp1280
F-0.030658
aF-1.15071
aF-0.728466
aF0.719394
aF1.225214
aF-0.311856
aF-1.362204
aF-1.002635
aF0.392568
aF1.224135
aa(lp1281
F0.152691
aF1.270111
aF0.34237
aF-1.364332
aF-1.282997
aF-1.254434
aF0.257544
aF1.457598
aF-1.341457
aF-1.462774
aa(lp1282
F-0.122333
aF1.495304
aF0.34237
aF-1.048616
aF-0.805242
aF-0.406114
aF0.53924
aF1.400384
aF-1.461045
aF-0.842718
aa(lp1283
F-0.122333
aF1.213813
aF1.948624
aF-1.048616
aF-1.04412
aF-0.971661
aF1.032206
aF1.171525
aF-1.221869
aF-1.324984
aa(lp1284
F0.611064
aF-0.475132
aF-1.085412
aF0.719394
aF1.284933
aF1.007752
aF-0.869237
aF-0.888206
aF1.050302
aF1.568611
aa(lp1285
F-0.397357
aF-1.207009
aF-0.847448
aF1.287683
aF0.926617
aF1.667556
aF-1.080509
aF-0.945421
aF-0.085784
aF1.706401
aa(lp1286
F0.061016
aF0.763428
aF1.472697
aF-1.553761
aF-0.9844
aF-0.217599
aF1.806869
aF0.656592
aF-0.863105
aF-1.049404
aa(lp1287
F0.702738
aF-0.137343
aF0.461352
aF-0.290897
aF0.269705
aF2.233103
aF1.10263
aF0.084445
aF0.392568
aF0.397394
aa(lp1288
F-1.314102
aF-1.488499
aF-0.847448
aF1.477112
aF1.225214
aF0.159432
aF-0.587542
aF-0.602132
aF1.229683
aF1.29303
aa(lp1289
F-2.597546
aF-1.207009
aF-0.96643
aF0.908824
aF0.508582
aF-0.59463
aF-1.010085
aF-1.17428
aF1.050302
aF0.259603
aa(lp1290
F-0.122333
aF1.270111
aF-0.193048
aF-1.743191
aF-1.462155
aF-1.537207
aF0.53924
aF1.800887
aF-1.221869
aF-1.256089
aa(lp1291
F-0.855729
aF-1.657394
aF-1.144902
aF0.340535
aF1.165495
aF-1.348691
aF-1.362204
aF-1.345924
aF1.468859
aF0.466289
aa(lp1292
F-1.222428
aF-1.319605
aF-0.847448
aF1.22454
aF0.448863
aF0.442206
aF-1.362204
aF-0.773776
aF1.648241
aF0.879659
aa(lp1293
F1.069437
aF-0.024747
aF0.104406
aF0.277392
aF0.568302
aF2.044587
aF-0.869237
aF-0.201629
aF0.332774
aF0.535184
aa(lp1294
F-0.305682
aF-1.207009
aF-1.263884
aF1.22454
aF1.284933
aF0.630721
aF-0.798814
aF-0.487703
aF0.87092
aF1.637506
aa(lp1295
F-1.039079
aF-1.094412
aF-1.263884
aF1.03511
aF0.329424
aF-0.217599
aF-1.996019
aF-1.17428
aF1.110095
aF0.328499
aa(lp1296
F-0.580706
aF1.270111
aF0.937279
aF-1.048616
aF-1.04412
aF-0.688887
aF0.257544
aF1.858102
aF-0.922899
aF-0.980509
aa(lp1297
F0.152691
aF1.213813
aF-0.074066
aF-1.553761
aF-1.04412
aF-1.442949
aF0.18712
aF2.029746
aF-1.341457
aF-1.256089
aa(lp1298
F0.061016
aF0.932322
aF1.829642
aF-0.922329
aF-1.342716
aF-0.783145
aF1.173054
aF0.828236
aF-1.281663
aF-1.118299
aa(lp1299
F1.802833
aF0.313042
aF0.223388
aF0.466821
aF0.090547
aF1.761814
aF0.961783
aF0.256089
aF0.512156
aF0.328499
aa(lp1300
F-0.764055
aF-0.925518
aF-0.847448
aF0.971967
aF1.046056
aF-0.029083
aF-1.150933
aF-0.773776
aF1.050302
aF0.672974
aa(lp1301
F1.34446
aF0.594533
aF0.223388
aF-1.301188
aF-1.282997
aF-0.029083
aF1.243478
aF0.599377
aF-0.743517
aF-0.291557
aa(lp1302
F-0.030658
aF1.439006
aF0.699315
aF-1.680048
aF-0.864962
aF-1.725722
aF0.18712
aF1.343169
aF-1.102281
aF-0.842718
aa(lp1303
F1.069437
aF0.36934
aF1.234733
aF-1.301188
aF-1.04412
aF-0.59463
aF1.595597
aF0.427733
aF-1.341457
aF-1.118299
aa(lp1304
F-2.505872
aF-0.869219
aF-1.501848
aF0.656251
aF0.986337
aF-0.59463
aF-1.291781
aF-1.117065
aF1.289477
aF-0.084872
aa(lp1305
F-1.222428
aF1.833093
aF0.580333
aF-0.796043
aF-0.9844
aF-0.500372
aF0.257544
aF1.343169
aF-1.162075
aF-1.66946
aa(lp1306
F0.427715
aF-0.24994
aF-0.490503
aF1.161396
aF0.448863
aF1.196267
aF-0.869237
aF-0.430488
aF0.27298
aF1.43082
aa(lp1307
F-1.130753
aF1.551602
aF0.758806
aF-0.922329
aF-1.163558
aF-1.725722
aF0.609663
aF0.942666
aF-1.341457
aF-1.66946
aa(lp1308
F-0.764055
aF1.326409
aF0.699315
aF-0.922329
aF-1.462155
aF-1.442949
aF-0.235423
aF1.858102
aF-1.221869
aF-0.980509
aa(lp1309
F-0.855729
aF-0.925518
aF-1.204393
aF0.908824
aF0.389144
aF-0.029083
aF-1.503052
aF-1.17428
aF1.050302
aF0.397394
aa(lp1310
F-1.405777
aF0.256744
aF0.461352
aF-1.616904
aF-1.521874
aF-0.971661
aF0.468816
aF1.972531
aF-1.162075
aF-1.66946
aa(lp1311
F0.886087
aF0.425639
aF0.580333
aF0.024819
aF-0.864962
aF0.25369
aF1.384326
aF0.542163
aF-0.384753
aF-0.084872
aa(lp1312
F0.244365
aF1.495304
aF0.877788
aF-1.616904
aF-0.805242
aF-1.914238
aF0.327968
aF1.514813
aF-1.341457
aF-1.738355
aa(lp1313
F0.152691
aF0.425639
aF1.05626
aF-1.174902
aF-1.282997
aF-1.537207
aF0.961783
aF0.771022
aF-1.221869
aF-1.187194
aa(lp1314
F-1.222428
aF1.270111
aF1.770151
aF-1.616904
aF-1.402435
aF-1.160176
aF1.313902
aF0.484948
aF-1.401251
aF-1.049404
aa(lp1315
F1.711159
aF0.087849
aF0.818297
aF-0.038324
aF0.030828
aF0.819237
aF0.680087
aF0.656592
aF-0.863105
aF0.672974
aa(lp1316
F-0.489031
aF-0.981816
aF-0.96643
aF1.413969
aF0.68774
aF-0.029083
aF-1.573476
aF-1.345924
aF1.409065
aF0.328499
aa(lp1317
F0.244365
aF-0.700325
aF-0.728466
aF1.350826
aF1.404372
aF1.007752
aF-0.446694
aF-0.945421
aF0.392568
aF1.568611
aa(lp1318
F-2.597546
aF-0.925518
aF-1.501848
aF0.466821
aF1.284933
aF0.724979
aF-1.080509
aF-1.17428
aF0.811126
aF0.535184
aa(lp1319
F1.436135
aF0.650831
aF0.34237
aF-0.038324
aF-0.685804
aF0.913494
aF0.750511
aF0.370518
aF-0.683723
aF-1.118299
aa(lp1320
F-0.67238
aF-0.925518
aF-1.561339
aF0.84568
aF1.464091
aF-0.217599
aF-1.855171
aF-0.888206
aF1.409065
aF0.397394
aa(lp1321
F-0.122333
aF1.495304
aF1.115751
aF-0.922329
aF-1.163558
aF-0.500372
aF0.53924
aF0.942666
aF-1.281663
aF-1.118299
aa(lp1322
F1.619484
aF0.36934
aF0.699315
aF-0.038324
aF0.150267
aF1.007752
aF0.257544
aF-0.201629
aF-0.265166
aF-0.153767
aa(lp1323
F-1.039079
aF1.382708
aF0.520842
aF-1.553761
aF-0.9844
aF-0.406114
aF0.257544
aF1.285954
aF-1.341457
aF-1.118299
aa(lp1324
F-0.580706
aF1.044918
aF0.937279
aF-1.111759
aF-1.342716
aF-1.160176
aF0.468816
aF1.629243
aF-1.281663
aF-0.980509
aa(lp1325
F-0.580706
aF-0.812921
aF-1.442357
aF1.22454
aF1.344653
aF0.159432
aF-1.432628
aF-0.945421
aF0.930714
aF0.604079
aa(lp1326
F0.977762
aF0.481937
aF0.996769
aF-0.290897
aF-0.685804
aF-0.029083
aF1.173054
aF0.256089
aF-0.444547
aF-0.704928
aa(lp1327
F2.352881
aF0.594533
aF1.115751
aF-0.164611
aF-0.566365
aF-1.254434
aF1.384326
aF-0.544917
aF-0.444547
aF-0.567138
aa(lp1328
F-0.122333
aF1.270111
aF1.353715
aF-1.174902
aF-0.924681
aF-0.217599
aF0.53924
aF1.514813
aF-1.341457
aF-1.876145
aa(lp1329
F-0.67238
aF-0.981816
aF-1.323375
aF1.03511
aF1.404372
aF-0.217599
aF-0.939661
aF-1.17428
aF1.588447
aF0.672974
aa(lp1330
F-1.039079
aF0.707129
aF1.948624
aF-1.174902
aF-1.223277
aF-1.348691
aF1.243478
aF0.771022
aF-1.162075
aF-1.738355
aa(lp1331
F-0.489031
aF1.833093
aF0.223388
aF-0.922329
aF-1.103839
aF-0.877403
aF0.53924
aF1.400384
aF-1.221869
aF-1.118299
aa(lp1332
F1.252786
aF0.256744
aF0.937279
aF-0.038324
aF-0.924681
aF0.630721
aF1.173054
aF0.484948
aF-0.265166
aF-0.704928
aa(lp1333
F-0.305682
aF-0.869219
aF-1.204393
aF1.161396
aF1.344653
aF0.065175
aF-1.080509
aF-0.888206
aF0.392568
aF0.190708
aa(lp1334
F2.261206
aF0.36934
aF0.996769
aF0.087962
aF0.030828
aF-0.877403
aF0.891359
aF0.542163
aF-0.324959
aF0.328499
aa(lp1335
F-0.305682
aF-0.587729
aF-0.431012
aF1.161396
aF0.030828
aF0.724979
aF-0.37627
aF-0.430488
aF0.27298
aF0.810764
aa(lp1336
F0.061016
aF0.538235
aF0.401861
aF0.529964
aF0.389144
aF1.479041
aF0.468816
aF0.484948
aF0.512156
aF0.948555
aa(lp1337
F-0.855729
aF-0.644027
aF-1.323375
aF0.466821
aF0.389144
aF0.159432
aF-1.221357
aF-1.117065
aF1.229683
aF0.535184
aa(lp1338
F-0.855729
aF0.932322
aF0.461352
aF-1.743191
aF-1.282997
aF-1.631465
aF0.257544
aF1.858102
aF-0.922899
aF-0.911613
aa(lp1339
F-0.489031
aF-1.038114
aF-0.787957
aF1.22454
aF1.225214
aF0.25369
aF-0.657966
aF-0.602132
aF0.57195
aF1.29303
aa(lp1340
F-1.039079
aF-1.094412
aF-1.561339
aF0.593108
aF1.284933
aF-1.160176
aF-1.080509
aF-1.17428
aF1.468859
aF0.466289
aa(lp1341
F-0.305682
aF-1.038114
aF-0.609484
aF1.413969
aF0.986337
aF0.442206
aF-0.657966
aF-1.117065
aF0.512156
aF1.637506
aa(lp1342
F-1.680801
aF-1.15071
aF-0.906939
aF0.466821
aF0.68774
aF-1.065918
aF-0.869237
aF-1.117065
aF0.751332
aF0.741869
aa(lp1343
F-0.489031
aF-1.207009
aF-0.96643
aF0.529964
aF0.209986
aF-1.348691
aF-1.714324
aF-1.231494
aF0.87092
aF0.397394
aa(lp1344
F-0.397357
aF-0.869219
aF-1.620829
aF0.782537
aF1.404372
aF0.347948
aF-0.446694
aF-1.288709
aF1.528653
aF0.741869
aa(lp1345
F-0.214007
aF-0.869219
aF-0.668975
aF0.782537
aF1.284933
aF1.10201
aF-1.432628
aF-0.659347
aF1.409065
aF1.361925
aa(lp1346
F0.977762
aF0.932322
aF1.294224
aF-0.985472
aF-0.805242
aF-0.029083
aF1.806869
aF0.942666
aF-0.922899
aF-1.256089
aa(lp1347
F-0.397357
aF1.495304
aF0.461352
aF-1.301188
aF-1.342716
aF-0.500372
aF-1.291781
aF1.343169
aF-1.401251
aF-1.324984
aa(lp1348
F2.077857
aF-0.137343
aF0.223388
aF0.214248
aF-0.14833
aF0.819237
aF0.53924
aF0.771022
aF-0.384753
aF0.121813
aa(lp1349
F-0.030658
aF1.270111
aF-0.252539
aF-1.680048
aF-1.163558
aF-1.725722
aF-0.164999
aF1.629243
aF-1.341457
aF-1.256089
aa(lp1350
F1.161111
aF0.819726
aF1.294224
aF-0.985472
aF-0.685804
aF-0.217599
aF1.877293
aF0.828236
aF-0.982693
aF-0.842718
aa(lp1351
F-0.580706
aF-1.207009
aF-1.204393
aF0.340535
aF1.464091
aF0.065175
aF-1.080509
aF-1.231494
aF0.811126
aF0.466289
aa(lp1352
F1.252786
aF0.200446
aF0.699315
aF0.466821
aF-0.387207
aF0.442206
aF0.609663
aF0.542163
aF0.093598
aF0.810764
aa(lp1353
F0.702738
aF0.313042
aF0.639824
aF0.214248
aF0.568302
aF1.856072
aF0.257544
aF0.427733
aF0.512156
aF0.948555
aa(lp1354
F1.069437
aF0.819726
aF0.520842
aF-0.669756
aF-1.103839
aF-0.217599
aF1.877293
aF0.256089
aF-0.922899
aF-0.842718
aa(lp1355
F-0.397357
aF-0.700325
aF-0.96643
aF0.529964
aF0.807179
aF-0.217599
aF-1.150933
aF-1.231494
aF1.648241
aF0.535184
aa(lp1356
F0.152691
aF-0.53143
aF-0.371521
aF0.340535
aF0.74746
aF1.950329
aF-0.72839
aF-0.716562
aF0.930714
aF1.706401
aa(lp1357
F-0.397357
aF-1.263307
aF-1.085412
aF0.656251
aF1.523811
aF0.442206
aF-0.587542
aF-0.716562
aF0.87092
aF0.328499
aa(lp1358
F2.169532
aF0.538235
aF0.996769
aF-0.54347
aF-0.685804
aF-0.217599
aF1.384326
aF0.313304
aF-0.623929
aF-0.842718
aa(lp1359
F-0.67238
aF-0.700325
aF-1.085412
aF0.719394
aF1.344653
aF0.159432
aF-1.573476
aF-1.117065
aF1.169889
aF0.604079
aa(lp1360
F0.152691
aF1.382708
aF1.353715
aF-1.238045
aF-0.924681
aF-0.311856
aF0.609663
aF0.99988
aF-1.221869
aF-1.118299
aa(lp1361
F-0.67238
aF-1.094412
aF-1.323375
aF0.151105
aF0.807179
aF-0.311856
aF-1.291781
aF-1.231494
aF1.708035
aF0.672974
aa(lp1362
F-0.67238
aF-1.207009
aF-1.561339
aF0.656251
aF1.404372
aF-0.406114
aF-1.010085
aF-0.544917
aF0.631744
aF0.741869
aa(lp1363
F-0.030658
aF-0.475132
aF-0.371521
aF0.656251
aF0.74746
aF0.724979
aF-0.798814
aF-0.830991
aF0.27298
aF0.948555
aa(lp1364
F1.619484
aF-0.024747
aF0.877788
aF0.277392
aF-0.208049
aF2.044587
aF0.750511
aF0.771022
aF0.811126
aF0.879659
aa(lp1365
F-0.030658
aF-1.038114
aF-0.96643
aF1.287683
aF1.105775
aF-0.123341
aF-0.446694
aF-0.773776
aF0.930714
aF1.01745
aa(lp1366
F-0.214007
aF1.101217
aF0.639824
aF-1.616904
aF-0.9844
aF-1.160176
aF0.53924
aF2.08696
aF-1.341457
aF-1.738355
aa(lp1367
F-0.489031
aF1.101217
aF1.71066
aF-1.174902
aF-0.9844
aF-1.160176
aF0.961783
aF0.713807
aF-0.922899
aF-1.876145
aa(lp1368
F-0.489031
aF0.594533
aF1.234733
aF-0.985472
aF-0.924681
aF-0.217599
aF0.750511
aF0.99988
aF-1.162075
aF-1.393879
aa(lp1369
F0.886087
aF-0.24994
aF-0.193048
aF0.719394
aF0.448863
aF0.536463
aF-0.587542
aF-0.602132
aF0.033804
aF0.879659
aa(lp1370
F0.152691
aF-0.869219
aF-1.025921
aF1.161396
aF0.986337
aF0.819237
aF-0.305847
aF-1.231494
aF1.050302
aF0.879659
aa(lp1371
F-0.489031
aF-1.15071
aF-0.96643
aF0.84568
aF1.404372
aF0.159432
aF-0.869237
aF-1.231494
aF1.468859
aF0.741869
aa(lp1372
F-1.680801
aF-1.15071
aF-1.085412
aF1.161396
aF0.986337
aF-1.254434
aF-1.150933
aF-1.002635
aF1.169889
aF0.397394
aa(lp1373
F1.619484
aF0.256744
aF0.580333
aF-1.174902
aF-0.566365
aF-0.217599
aF1.45475
aF0.771022
aF-0.384753
aF-0.704928
aa(lp1374
F1.436135
aF0.763428
aF0.639824
aF-0.54347
aF-0.387207
aF0.819237
aF0.609663
aF0.370518
aF-0.444547
aF-0.980509
aa(lp1375
F1.436135
aF0.256744
aF0.639824
aF-1.048616
aF0.209986
aF1.761814
aF0.609663
aF0.427733
aF0.512156
aF0.328499
aa(lp1376
F2.077857
aF0.200446
aF0.699315
aF-0.038324
aF-0.088611
aF1.007752
aF0.468816
aF0.542163
aF-0.444547
aF-0.084872
aa(lp1377
F-0.397357
aF0.313042
aF1.413206
aF-1.427475
aF-0.9844
aF-1.065918
aF1.595597
aF-0.201629
aF-1.102281
aF-0.842718
aa(lp1378
F0.152691
aF1.326409
aF0.223388
aF-0.796043
aF-1.04412
aF-1.160176
aF0.18712
aF1.400384
aF-1.102281
aF-1.531669
aa(lp1379
F-1.589126
aF1.720497
aF0.223388
aF-1.174902
aF-1.342716
aF-1.442949
aF0.116696
aF1.514813
aF-1.341457
aF-0.980509
aa(lp1380
F0.519389
aF-0.644027
aF-0.252539
aF1.413969
aF1.344653
aF1.290525
aF-0.657966
aF-0.659347
aF0.631744
aF1.499716
aa(lp1381
F-0.397357
aF-0.925518
aF-0.96643
aF0.908824
aF0.926617
aF0.159432
aF-0.939661
aF-1.231494
aF0.87092
aF0.604079
aa(lp1382
F-0.305682
aF1.439006
aF0.996769
aF-1.238045
aF-1.521874
aF-0.688887
aF0.750511
aF0.942666
aF-1.341457
aF-1.876145
aa(lp1383
F1.436135
aF0.256744
aF1.115751
aF-0.038324
aF-0.685804
aF-0.029083
aF1.313902
aF0.427733
aF-0.444547
aF-0.153767
aa(lp1384
F-0.122333
aF0.98862
aF0.34237
aF-1.364332
aF-0.9844
aF-1.537207
aF0.116696
aF2.029746
aF-1.221869
aF-1.66946
aa(lp1385
F-0.305682
aF0.819726
aF0.461352
aF-1.553761
aF-1.04412
aF-1.254434
aF-0.305847
aF1.858102
aF-1.281663
aF-1.256089
aa(lp1386
F1.711159
aF0.538235
aF0.401861
aF-0.101468
aF0.030828
aF1.10201
aF0.327968
aF0.370518
aF-1.221869
aF0.121813
aa(lp1387
F2.352881
aF0.707129
aF0.996769
aF-0.164611
aF-0.446927
aF1.196267
aF1.384326
aF0.313304
aF-0.085784
aF-0.567138
aa(lp1388
F-1.039079
aF-1.15071
aF-1.144902
aF1.161396
aF1.284933
aF0.442206
aF-1.150933
aF-0.945421
aF1.409065
aF-0.291557
aa(lp1389
F-0.030658
aF1.326409
aF1.294224
aF-0.859186
aF-0.9844
aF-0.500372
aF0.398392
aF0.828236
aF-1.162075
aF-1.66946
aa(lp1390
F1.802833
aF0.36934
aF0.996769
aF0.277392
aF0.269705
aF1.196267
aF0.680087
aF0.084445
aF-0.085784
aF0.466289
aa(lp1391
F0.33604
aF-1.038114
aF-0.609484
aF0.971967
aF0.74746
aF0.819237
aF-0.657966
aF-0.659347
aF0.930714
aF1.29303
aa(lp1392
F0.977762
aF0.594533
aF1.353715
aF-0.922329
aF-0.685804
aF-0.029083
aF2.01814
aF0.656592
aF-0.683723
aF-0.704928
aa(lp1393
F-0.030658
aF-0.53143
aF0.580333
aF0.151105
aF0.508582
aF1.573298
aF0.327968
aF0.256089
aF-0.085784
aF0.948555
aa(lp1394
F-0.122333
aF1.270111
aF1.234733
aF-1.048616
aF-1.402435
aF-0.123341
aF0.327968
aF1.285954
aF-1.341457
aF-1.049404
aa(lp1395
F0.061016
aF0.98862
aF0.223388
aF-0.922329
aF-1.04412
aF-1.537207
aF-0.094575
aF2.08696
aF-1.461045
aF-1.049404
aa(lp1396
F1.34446
aF0.425639
aF0.639824
aF0.277392
aF0.389144
aF0.913494
aF0.750511
aF0.771022
aF-0.085784
aF0.328499
aa(lp1397
F-0.67238
aF-0.869219
aF-1.68032
aF0.782537
aF1.284933
aF0.347948
aF-0.72839
aF-0.773776
aF0.930714
aF1.361925
aa(lp1398
F1.711159
aF0.200446
aF0.461352
aF0.151105
aF0.329424
aF0.347948
aF0.468816
aF0.484948
aF0.392568
aF0.672974
aa(lp1399
F0.244365
aF-0.024747
aF0.163897
aF0.529964
aF0.628021
aF2.138845
aF0.116696
aF-0.373273
aF0.093598
aF0.741869
aa(lp1400
F-0.397357
aF0.481937
aF0.461352
aF-0.922329
aF-1.521874
aF-1.348691
aF-0.305847
aF0.942666
aF-1.162075
aF-1.118299
aa(lp1401
F1.436135
aF0.36934
aF0.34237
aF0.214248
aF-0.864962
aF2.044587
aF0.257544
aF0.542163
aF-0.444547
aF-0.084872
aa(lp1402
F1.527809
aF0.200446
aF0.937279
aF-0.164611
aF0.150267
aF0.724979
aF0.18712
aF0.484948
aF0.512156
aF0.741869
aa(lp1403
F0.702738
aF0.538235
aF0.223388
aF-0.290897
aF0.269705
aF0.630721
aF0.116696
aF-0.029985
aF0.631744
aF0.466289
aa(lp1404
F-0.214007
aF1.044918
aF1.829642
aF-1.048616
aF-1.04412
aF-0.783145
aF1.384326
aF1.057095
aF-1.221869
aF-1.80725
aa(lp1405
F-0.214007
aF1.495304
aF1.115751
aF-0.922329
aF-1.402435
aF-0.688887
aF0.961783
aF1.057095
aF-1.102281
aF-1.738355
aa(lp1406
F-1.314102
aF-1.038114
aF-0.728466
aF1.477112
aF0.508582
aF0.724979
aF-0.305847
aF-0.602132
aF1.050302
aF1.637506
aa(lp1407
F-0.580706
aF-0.812921
aF-1.263884
aF1.22454
aF1.643249
aF-0.217599
aF-1.291781
aF-1.002635
aF1.050302
aF0.397394
aa(lp1408
F1.069437
aF0.36934
aF-0.014576
aF0.340535
aF0.329424
aF1.761814
aF0.609663
aF-0.830991
aF0.213186
aF0.741869
aa(lp1409
F-0.947404
aF1.495304
aF0.639824
aF-1.553761
aF-1.402435
aF-0.406114
aF-0.164999
aF1.686457
aF-1.281663
aF-1.118299
aa(lp1410
F0.977762
aF0.425639
aF0.104406
aF-0.35404
aF0.269705
aF1.573298
aF0.468816
aF0.484948
aF0.452362
aF0.741869
aa(lp1411
F0.152691
aF1.157515
aF1.115751
aF-0.796043
aF-1.223277
aF-0.406114
aF0.750511
aF0.828236
aF-1.221869
aF-1.187194
aa(lp1412
F-1.039079
aF-1.038114
aF-1.085412
aF0.593108
aF0.74746
aF-0.406114
aF-1.573476
aF-1.345924
aF1.767829
aF0.604079
aa(lp1413
F2.169532
aF0.707129
aF0.996769
aF-0.417184
aF-0.208049
aF1.10201
aF1.313902
aF0.484948
aF0.033804
aF-0.153767
aa(lp1414
F-1.039079
aF-1.038114
aF-1.204393
aF1.540256
aF1.523811
aF-0.029083
aF-1.150933
aF-0.945421
aF0.87092
aF0.672974
aa(lp1415
F-0.67238
aF-0.700325
aF-1.501848
aF1.477112
aF1.464091
aF-0.217599
aF-1.784747
aF-0.602132
aF0.751332
aF0.879659
aa(lp1416
F-0.305682
aF-0.981816
aF-1.085412
aF1.03511
aF0.68774
aF0.819237
aF-1.010085
aF-0.830991
aF1.409065
aF0.879659
aa(lp1417
F-1.039079
aF-1.094412
aF-1.204393
aF1.287683
aF0.74746
aF-0.311856
aF-1.855171
aF-1.17428
aF1.050302
aF0.604079
aa(lp1418
F1.252786
aF-0.024747
aF-0.193048
aF0.529964
aF0.389144
aF1.950329
aF0.609663
aF-0.144414
aF-0.265166
aF0.741869
aa(lp1419
F1.619484
aF0.200446
aF0.818297
aF-0.227754
aF0.030828
aF1.667556
aF-0.164999
aF0.542163
aF-0.265166
aF0.121813
aa(lp1420
F-1.772475
aF-1.432201
aF-1.204393
aF0.403678
aF0.448863
aF-0.029083
aF-1.6439
aF-1.345924
aF1.409065
aF0.328499
aa(lp1421
F-0.855729
aF-1.375903
aF-0.787957
aF1.477112
aF0.74746
aF0.347948
aF-1.150933
aF-0.888206
aF0.990508
aF0.672974
aa(lp1422
F-0.030658
aF-1.038114
aF-1.442357
aF0.656251
aF0.866898
aF0.724979
aF-0.446694
aF-0.773776
aF0.811126
aF0.879659
aa(lp1423
F1.161111
aF0.707129
aF0.401861
aF-0.922329
aF-1.521874
aF0.159432
aF1.173054
aF0.599377
aF-1.042487
aF-0.222662
aa(lp1424
F0.702738
aF0.425639
aF0.877788
aF-0.922329
aF-0.864962
aF0.159432
aF1.736445
aF0.828236
aF-1.042487
aF-1.80725
aa(lp1425
F-0.122333
aF1.495304
aF0.699315
aF-1.616904
aF-0.805242
aF-1.160176
aF0.398392
aF1.057095
aF-1.401251
aF-1.118299
aa(lp1426
F0.061016
aF-1.319605
aF-0.906939
aF0.466821
aF0.807179
aF0.819237
aF-0.587542
aF-0.716562
aF1.528653
aF0.672974
aa(lp1427
F0.061016
aF1.833093
aF0.699315
aF-0.796043
aF-1.163558
aF-1.725722
aF-0.517118
aF1.400384
aF-1.341457
aF-0.980509
aa(lp1428
F-0.122333
aF0.763428
aF1.115751
aF-1.301188
aF-0.924681
aF-0.029083
aF0.609663
aF1.11431
aF-1.461045
aF-1.324984
aa(lp1429
F0.886087
aF-0.081045
aF0.104406
aF0.466821
aF0.150267
aF0.819237
aF0.046273
aF-0.430488
aF0.751332
aF0.810764
aa(lp1430
F-0.855729
aF-0.925518
aF-1.204393
aF1.161396
aF1.464091
aF-0.406114
aF-1.221357
aF-1.002635
aF1.289477
aF-0.842718
aa(lp1431
F0.061016
aF-0.362536
aF-0.252539
aF0.782537
aF0.628021
aF1.007752
aF-0.446694
aF-0.716562
aF0.751332
aF1.568611
aa(lp1432
F1.619484
aF0.481937
aF0.044915
aF-1.048616
aF-0.864962
aF-0.688887
aF1.45475
aF0.771022
aF-0.504341
aF-0.980509
aa(lp1433
F-0.489031
aF-0.193641
aF0.104406
aF0.971967
aF0.448863
aF0.25369
aF-0.446694
aF-1.231494
aF0.57195
aF1.637506
aa(lp1434
F0.061016
aF-0.812921
aF0.163897
aF1.287683
aF0.209986
aF1.950329
aF0.257544
aF-0.830991
aF0.512156
aF0.259603
aa(lp1435
F2.169532
aF0.481937
aF0.639824
aF-0.290897
aF-0.805242
aF0.347948
aF0.750511
aF0.370518
aF-0.384753
aF0.121813
aa(lp1436
F1.986182
aF0.538235
aF0.996769
aF0.277392
aF0.329424
aF1.384783
aF0.257544
aF0.256089
aF-0.02599
aF0.879659
aa(lp1437
F1.252786
aF1.044918
aF1.234733
aF-0.796043
aF-0.745523
aF-0.500372
aF1.595597
aF0.370518
aF-0.863105
aF-0.704928
aa(lp1438
F-0.030658
aF1.495304
aF0.520842
aF-1.743191
aF-1.163558
aF-1.254434
aF0.257544
aF0.828236
aF-1.341457
aF-1.049404
aa(lp1439
F0.061016
aF-1.207009
aF-1.204393
aF0.403678
aF0.628021
aF-0.123341
aF-1.010085
aF-1.117065
aF1.169889
aF0.604079
aa(lp1440
F-0.214007
aF0.538235
aF0.282879
aF-1.364332
aF-1.282997
aF-1.537207
aF-1.080509
aF2.029746
aF-1.221869
aF-1.324984
aa(lp1441
F-0.947404
aF-1.544798
aF-0.847448
aF1.22454
aF1.284933
aF-0.406114
aF-0.869237
aF-1.17428
aF0.631744
aF0.397394
aa(lp1442
F-1.314102
aF-1.432201
aF-1.263884
aF0.529964
aF0.68774
aF-0.59463
aF-1.080509
aF-1.231494
aF1.409065
aF0.259603
aa(lp1443
F-1.039079
aF1.326409
aF1.234733
aF-0.7329
aF-1.402435
aF-1.725722
aF0.468816
aF0.828236
aF-1.341457
aF-0.980509
aa(lp1444
F-0.122333
aF-1.094412
aF-0.96643
aF1.603399
aF1.464091
aF0.065175
aF-0.446694
aF-0.945421
aF0.751332
aF0.535184
aa(lp1445
F0.061016
aF-0.306238
aF0.223388
aF0.024819
aF0.030828
aF1.761814
aF0.680087
aF0.427733
aF0.512156
aF0.397394
aa(lp1446
F-1.039079
aF-0.981816
aF-1.561339
aF0.782537
aF0.986337
aF-0.217599
aF-1.010085
aF-1.231494
aF0.87092
aF0.328499
aa(lp1447
F-0.397357
aF1.495304
aF0.401861
aF-0.922329
aF-0.566365
aF-1.254434
aF0.257544
aF1.285954
aF-1.221869
aF-0.842718
aa(lp1448
F-0.305682
aF-1.432201
aF-1.263884
aF0.656251
aF0.866898
aF0.724979
aF-1.150933
aF-1.117065
aF0.990508
aF0.741869
aa(lp1449
F-0.214007
aF1.439006
aF0.401861
aF-1.616904
aF-1.342716
aF-1.160176
aF0.468816
aF1.400384
aF-1.281663
aF-1.738355
aa(lp1450
F-0.489031
aF-0.812921
aF-1.561339
aF0.656251
aF1.523811
aF0.724979
aF-0.939661
aF-0.945421
aF1.289477
aF-0.291557
aa(lp1451
F-1.039079
aF-1.15071
aF-0.96643
aF1.287683
aF1.58353
aF-0.029083
aF-1.010085
aF-0.830991
aF1.110095
aF0.466289
aa(lp1452
F-0.122333
aF1.495304
aF1.115751
aF-1.048616
aF-0.9844
aF-0.311856
aF0.820935
aF0.599377
aF-1.341457
aF-1.600565
aa(lp1453
F-0.305682
aF1.382708
aF0.223388
aF-1.174902
aF-1.223277
aF-1.065918
aF-0.024151
aF2.144175
aF-1.281663
aF-0.980509
aa(lp1454
F0.061016
aF-0.981816
aF-0.847448
aF0.214248
aF0.926617
aF0.25369
aF-0.517118
aF-0.659347
aF1.528653
aF0.741869
aa(lp1455
F0.794413
aF-0.587729
aF0.044915
aF-0.038324
aF-0.088611
aF2.138845
aF0.18712
aF-0.430488
aF0.512156
aF0.741869
aa(lp1456
F0.061016
aF1.495304
aF0.401861
aF-1.553761
aF-1.223277
aF-1.537207
aF0.327968
aF1.11431
aF-1.401251
aF-1.324984
aa(lp1457
F1.069437
aF-0.475132
aF-1.025921
aF0.656251
aF0.389144
aF1.667556
aF-0.024151
aF-0.029985
aF0.512156
aF1.43082
aa(lp1458
F-0.030658
aF1.270111
aF1.770151
aF-1.238045
aF-1.282997
aF-1.254434
aF1.313902
aF0.828236
aF-1.341457
aF-0.842718
aa(lp1459
F1.252786
aF-0.587729
aF-0.252539
aF0.529964
aF0.568302
aF2.044587
aF-0.164999
aF-0.373273
aF0.57195
aF0.879659
aa(lp1460
F-0.305682
aF0.707129
aF0.401861
aF-0.859186
aF-1.462155
aF-1.442949
aF0.18712
aF2.315819
aF-1.341457
aF-0.980509
aa(lp1461
F-0.855729
aF-1.038114
aF-1.561339
aF0.719394
aF1.284933
aF-0.029083
aF-1.573476
aF-0.830991
aF0.57195
aF0.879659
aa(lp1462
F1.161111
aF0.538235
aF1.05626
aF-0.164611
aF-0.446927
aF-0.123341
aF0.680087
aF0.771022
aF-0.085784
aF-0.084872
aa(lp1463
F1.252786
aF0.650831
aF0.639824
aF0.151105
aF-0.088611
aF1.479041
aF1.243478
aF-0.0872
aF0.691538
aF0.741869
aa(lp1464
F0.427715
aF0.707129
aF1.05626
aF-1.427475
aF-0.685804
aF-0.029083
aF1.384326
aF0.656592
aF-0.922899
aF-0.291557
aa(lp1465
F0.061016
aF1.157515
aF0.937279
aF-1.301188
aF-1.521874
aF-1.065918
aF0.53924
aF1.572028
aF-1.401251
aF-1.118299
aa(lp1466
F-0.67238
aF-0.981816
aF-1.204393
aF1.161396
aF1.762688
aF0.159432
aF-1.432628
aF-1.288709
aF0.87092
aF0.259603
aa(lp1467
F0.152691
aF-0.925518
aF-0.549994
aF0.340535
aF1.344653
aF-0.123341
aF-0.446694
aF-1.231494
aF0.27298
aF0.879659
aa(lp1468
F-0.305682
aF1.326409
aF1.234733
aF-1.301188
aF-1.402435
aF-0.029083
aF0.680087
aF1.400384
aF-1.461045
aF-1.462774
aa(lp1469
F-0.214007
aF1.157515
aF1.294224
aF-1.427475
aF-1.223277
aF-0.59463
aF1.45475
aF1.228739
aF-1.341457
aF-0.980509
aa(lp1470
F-0.67238
aF-0.981816
aF-0.431012
aF1.287683
aF1.284933
aF1.196267
aF-0.657966
aF-0.773776
aF0.930714
aF1.637506
aa(lp1471
F-1.405777
aF-1.038114
aF-0.906939
aF1.161396
aF0.926617
aF-0.59463
aF-1.925595
aF-0.945421
aF1.528653
aF0.121813
aa(lp1472
F-0.305682
aF-0.981816
aF-1.025921
aF0.782537
aF0.628021
aF-0.029083
aF-0.446694
aF-0.716562
aF0.930714
aF0.672974
aa(lp1473
F1.436135
aF0.313042
aF1.115751
aF0.087962
aF-0.566365
aF-0.688887
aF1.10263
aF0.427733
aF-0.683723
aF-0.015977
aa(lp1474
F1.619484
aF0.707129
aF0.461352
aF-0.796043
aF-0.805242
aF-0.029083
aF1.595597
aF0.484948
aF-0.803311
aF-0.291557
aa(lp1475
F1.436135
aF0.200446
aF1.234733
aF0.024819
aF-0.387207
aF-0.500372
aF1.45475
aF0.713807
aF-0.324959
aF-0.704928
aa(lp1476
F-0.855729
aF-1.038114
aF-1.085412
aF1.540256
aF1.464091
aF-0.500372
aF-1.573476
aF-1.05985
aF1.349271
aF0.741869
aa(lp1477
F-0.122333
aF-1.094412
aF-1.323375
aF0.908824
aF0.986337
aF0.630721
aF-0.587542
aF-1.231494
aF1.289477
aF1.43082
aa(lp1478
F-0.214007
aF1.044918
aF0.223388
aF-1.364332
aF-1.04412
aF-1.725722
aF0.116696
aF2.029746
aF-1.221869
aF-1.393879
aa(lp1479
F1.069437
aF1.044918
aF0.996769
aF-0.796043
aF-1.223277
aF-0.217599
aF1.736445
aF0.256089
aF-1.102281
aF-0.980509
aa(lp1480
F0.152691
aF0.256744
aF1.472697
aF-1.301188
aF-1.04412
aF-0.406114
aF1.45475
aF-0.144414
aF-0.863105
aF-0.911613
aa(lp1481
F-0.67238
aF-0.869219
aF-1.085412
aF0.782537
aF1.284933
aF0.159432
aF-1.150933
aF-0.773776
aF1.169889
aF0.604079
aa(lp1482
F-1.589126
aF-1.488499
aF-0.847448
aF1.03511
aF0.508582
aF-0.500372
aF-1.010085
aF-1.288709
aF0.512156
aF0.535184
aa(lp1483
F-0.855729
aF-1.263307
aF-1.501848
aF1.03511
aF0.568302
aF-1.065918
aF-1.010085
aF-0.945421
aF1.110095
aF0.741869
aa(lp1484
F1.069437
aF1.044918
aF1.353715
aF-0.606613
aF-0.685804
aF0.065175
aF1.736445
aF0.542163
aF-1.281663
aF-1.187194
aa(lp1485
F2.169532
aF0.763428
aF0.163897
aF0.151105
aF-0.14833
aF1.573298
aF-0.024151
aF0.256089
aF0.631744
aF0.397394
aa(lp1486
F-1.130753
aF1.157515
aF0.461352
aF-1.301188
aF-1.04412
aF-1.254434
aF0.257544
aF1.629243
aF-1.221869
aF-1.118299
aa(lp1487
F1.619484
aF1.044918
aF0.758806
aF-0.669756
aF-0.566365
aF-1.348691
aF1.595597
aF0.713807
aF-1.162075
aF-0.360453
aa(lp1488
F0.33604
aF-1.038114
aF-0.074066
aF0.656251
aF-0.387207
aF1.007752
aF-0.587542
aF-1.002635
aF-0.085784
aF0.328499
aa(lp1489
F0.061016
aF-1.319605
aF-0.431012
aF0.908824
aF0.986337
aF1.856072
aF-1.010085
aF-0.716562
aF0.811126
aF1.43082
aa(lp1490
F0.519389
aF0.538235
aF0.639824
aF-1.238045
aF-0.685804
aF-0.688887
aF1.173054
aF0.427733
aF-0.504341
aF-0.222662
aa(lp1491
F0.061016
aF0.36934
aF1.948624
aF-1.616904
aF-1.223277
aF-0.783145
aF1.313902
aF0.885451
aF-0.922899
aF-1.324984
aa(lp1492
F-0.030658
aF-0.587729
aF-0.133557
aF1.098253
aF0.090547
aF0.819237
aF-0.939661
aF-1.117065
aF0.57195
aF1.499716
aa(lp1493
F0.427715
aF-0.362536
aF-1.025921
aF1.287683
aF0.628021
aF0.347948
aF-0.446694
aF-0.716562
aF0.57195
aF1.01745
aa(lp1494
F-0.855729
aF1.833093
aF0.223388
aF-0.922329
aF-1.04412
aF-1.537207
aF0.18712
aF1.400384
aF-1.102281
aF-0.980509
aa(lp1495
F-0.764055
aF1.157515
aF1.532187
aF-1.680048
aF-1.282997
aF-0.877403
aF0.53924
aF0.427733
aF-0.982693
aF-0.704928
aa(lp1496
F1.527809
aF0.256744
aF-0.074066
aF-1.427475
aF-0.446927
aF-0.877403
aF1.384326
aF0.542163
aF-0.444547
aF-0.222662
aa(lp1497
F-1.130753
aF-0.925518
aF-1.204393
aF0.593108
aF1.225214
aF-0.029083
aF-1.503052
aF-1.288709
aF0.57195
aF0.741869
aa(lp1498
F-1.86415
aF-1.038114
aF-1.144902
aF0.593108
aF0.030828
aF-0.029083
aF-1.080509
aF-1.117065
aF1.409065
aF0.672974
aa(lp1499
F-0.764055
aF-0.925518
aF-0.96643
aF1.03511
aF1.046056
aF0.159432
aF-1.432628
aF-1.231494
aF1.528653
aF0.121813
aa(lp1500
F0.427715
aF-0.024747
aF-0.014576
aF0.529964
aF0.508582
aF1.950329
aF-0.446694
aF-1.002635
aF0.153392
aF1.01745
aa(lp1501
F-0.67238
aF-1.488499
aF-1.799302
aF0.087962
aF0.926617
aF-0.500372
aF-1.573476
aF-1.345924
aF1.767829
aF0.397394
aa(lp1502
F-0.214007
aF-0.925518
aF-0.728466
aF0.908824
aF0.74746
aF0.630721
aF-0.939661
aF-0.888206
aF1.409065
aF0.397394
aa(lp1503
F-0.305682
aF1.270111
aF1.353715
aF-0.859186
aF-1.223277
aF-0.59463
aF0.820935
aF0.656592
aF-1.281663
aF-1.600565
aa(lp1504
F-0.305682
aF-1.15071
aF-1.025921
aF0.782537
aF1.523811
aF0.159432
aF-1.221357
aF-1.17428
aF0.930714
aF0.879659
aa(lp1505
F0.061016
aF-0.700325
aF-0.431012
aF0.719394
aF0.090547
aF1.761814
aF0.18712
aF-0.144414
aF0.452362
aF1.637506
aa(lp1506
F1.069437
aF0.425639
aF0.461352
aF0.024819
aF0.508582
aF0.630721
aF0.891359
aF0.656592
aF0.87092
aF0.741869
aa(lp1507
F0.702738
aF-0.812921
aF-0.31203
aF1.287683
aF1.344653
aF1.950329
aF-0.446694
aF-0.544917
aF0.631744
aF1.706401
aa(lp1508
F-0.214007
aF1.833093
aF0.580333
aF-0.985472
aF-1.04412
aF-1.442949
aF0.18712
aF1.343169
aF-1.221869
aF-0.980509
aa(lp1509
F-0.580706
aF1.270111
aF0.401861
aF-1.427475
aF-1.521874
aF-1.725722
aF0.327968
aF2.029746
aF-0.982693
aF-1.118299
aa(lp1510
F-0.397357
aF-1.038114
aF-0.96643
aF1.540256
aF0.68774
aF0.25369
aF-1.291781
aF-1.288709
aF0.990508
aF1.29303
aa(lp1511
F-1.405777
aF-0.981816
aF-0.847448
aF1.22454
aF1.046056
aF0.724979
aF-0.657966
aF-0.659347
aF0.631744
aF1.086345
aa(lp1512
F0.152691
aF-1.094412
aF-1.263884
aF1.287683
aF1.284933
aF1.007752
aF-0.37627
aF-0.544917
aF0.87092
aF1.637506
aa(lp1513
F1.619484
aF0.707129
aF0.877788
aF0.151105
aF-0.685804
aF1.573298
aF0.820935
aF0.084445
aF0.27298
aF0.466289
aa(lp1514
F0.061016
aF1.382708
aF-0.014576
aF-1.301188
aF-0.566365
aF-0.500372
aF0.398392
aF1.228739
aF-1.162075
aF-1.049404
aa(lp1515
F0.33604
aF-0.137343
aF-0.014576
aF0.403678
aF0.508582
aF1.573298
aF-0.517118
aF-0.0872
aF0.033804
aF0.397394
aa(lp1516
F-0.305682
aF-1.15071
aF-1.739811
aF0.971967
aF1.404372
aF-0.500372
aF-1.573476
aF-1.231494
aF0.930714
aF0.190708
aa(lp1517
F2.261206
aF0.538235
aF0.818297
aF0.087962
aF0.508582
aF1.007752
aF0.116696
aF0.313304
aF0.332774
aF0.121813
aa(lp1518
F-0.489031
aF0.98862
aF0.282879
aF-1.111759
aF-0.9844
aF-1.254434
aF0.327968
aF2.20139
aF-1.221869
aF-1.738355
aa(lp1519
F-0.122333
aF-1.207009
aF-0.847448
aF1.161396
aF1.464091
aF0.724979
aF-0.72839
aF-0.773776
aF0.930714
aF0.741869
aa(lp1520
F1.619484
aF0.313042
aF1.115751
aF0.214248
aF-0.446927
aF1.10201
aF0.398392
aF0.656592
aF-0.384753
aF0.397394
aa(lp1521
F-0.030658
aF-0.24994
aF-0.371521
aF1.22454
aF-0.14833
aF0.724979
aF-0.305847
aF-0.487703
aF0.452362
aF1.361925
aa(lp1522
F-1.314102
aF-0.981816
aF-1.085412
aF0.593108
aF1.225214
aF0.065175
aF-1.6439
aF-1.117065
aF0.27298
aF0.741869
aa(lp1523
F-1.589126
aF-1.319605
aF-1.442357
aF0.593108
aF0.986337
aF-0.783145
aF-1.150933
aF-1.231494
aF1.409065
aF-0.222662
aa(lp1524
F-0.122333
aF1.326409
aF1.353715
aF-1.301188
aF-0.864962
aF-0.123341
aF0.468816
aF1.514813
aF-1.162075
aF-1.393879
aa(lp1525
F-0.397357
aF1.326409
aF1.591678
aF-1.490618
aF-1.282997
aF-1.442949
aF1.313902
aF1.057095
aF-1.401251
aF-0.567138
aa(lp1526
F0.886087
aF-0.587729
aF-0.133557
aF0.024819
aF0.68774
aF1.573298
aF0.18712
aF-0.316058
aF0.392568
aF0.810764
aa(lp1527
F0.33604
aF-1.544798
aF-0.371521
aF0.84568
aF0.389144
aF0.25369
aF-0.517118
aF-0.716562
aF0.392568
aF1.43082
aa(lp1528
F-0.489031
aF-0.925518
aF-0.96643
aF1.413969
aF1.284933
aF-0.311856
aF-1.221357
aF-1.288709
aF1.528653
aF0.466289
aa(lp1529
F0.519389
aF-1.15071
aF-0.668975
aF0.277392
aF1.284933
aF1.479041
aF-0.446694
aF-0.659347
aF0.57195
aF-0.222662
aa(lp1530
F0.794413
aF-0.362536
aF-0.371521
aF1.098253
aF0.807179
aF1.007752
aF-0.305847
aF-0.487703
aF0.87092
aF1.637506
aa(lp1531
F-0.67238
aF-1.038114
aF-0.906939
aF0.151105
aF1.225214
aF0.347948
aF-0.869237
aF-1.345924
aF0.811126
aF0.466289
aa(lp1532
F1.436135
aF0.031551
aF0.937279
aF-0.35404
aF-0.208049
aF0.724979
aF0.398392
aF0.427733
aF-0.743517
aF-0.704928
aa(lp1533
F-0.855729
aF-1.207009
aF-1.204393
aF1.729685
aF1.762688
aF-0.500372
aF-0.939661
aF-1.403138
aF0.990508
aF0.328499
aa(lp1534
F-0.67238
aF1.270111
aF1.532187
aF-1.553761
aF-1.223277
aF-0.783145
aF1.313902
aF0.771022
aF-1.042487
aF-1.118299
aa(lp1535
F-0.397357
aF1.157515
aF1.413206
aF-1.427475
aF-1.282997
aF-0.406114
aF1.45475
aF1.228739
aF-1.341457
aF-1.049404
aa(lp1536
F-0.397357
aF1.157515
aF0.758806
aF-1.174902
aF-1.402435
aF-1.631465
aF0.53924
aF2.08696
aF-1.341457
aF-1.600565
aa(lp1537
F-0.397357
aF-0.981816
aF-1.085412
aF1.161396
aF0.568302
aF-0.783145
aF-1.291781
aF-0.945421
aF0.87092
aF0.259603
aa(lp1538
F-0.214007
aF1.270111
aF0.580333
aF-0.859186
aF-1.282997
aF-1.348691
aF0.398392
aF1.514813
aF-1.102281
aF-1.049404
aa(lp1539
F-0.305682
aF1.833093
aF0.34237
aF-0.985472
aF-1.04412
aF-1.254434
aF0.046273
aF1.343169
aF-0.863105
aF-1.187194
aa(lp1540
F-0.67238
aF-1.038114
aF-1.263884
aF0.593108
aF1.523811
aF-0.59463
aF-1.221357
aF-1.288709
aF1.289477
aF0.397394
aa(lp1541
F0.977762
aF0.538235
aF0.461352
aF-1.490618
aF-0.626084
aF0.724979
aF1.313902
aF0.313304
aF-0.444547
aF-0.429348
aa(lp1542
F-0.214007
aF-0.700325
aF-0.728466
aF1.098253
aF1.225214
aF0.913494
aF-1.080509
aF-0.945421
aF0.990508
aF0.672974
aa(lp1543
F1.436135
aF0.98862
aF-0.133557
aF-0.101468
aF-0.208049
aF1.761814
aF-0.164999
aF0.141659
aF0.093598
aF-0.429348
aa(lp1544
F-0.489031
aF0.763428
aF1.889133
aF-0.796043
aF-1.282997
aF-0.500372
aF1.173054
aF0.713807
aF-1.162075
aF-1.393879
aa(lp1545
F-0.67238
aF-1.094412
aF-1.263884
aF1.03511
aF1.225214
aF0.25369
aF-1.080509
aF-0.830991
aF0.452362
aF0.948555
aa(lp1546
F-1.222428
aF-0.981816
aF-1.263884
aF1.350826
aF1.404372
aF0.065175
aF-1.010085
aF-0.716562
aF1.528653
aF0.259603
aa(lp1547
F-0.580706
aF-1.038114
aF-1.144902
aF1.098253
aF0.807179
aF0.724979
aF-0.798814
aF-0.659347
aF1.528653
aF0.397394
aa(lp1548
F-0.764055
aF-1.038114
aF-0.847448
aF1.22454
aF0.68774
aF0.25369
aF-1.080509
aF-0.830991
aF1.648241
aF0.810764
aa(lp1549
F1.34446
aF0.594533
aF0.163897
aF0.340535
aF-0.267769
aF0.913494
aF0.609663
aF0.427733
aF-0.384753
aF0.466289
aa(lp1550
F-0.397357
aF-0.24994
aF-0.133557
aF1.098253
aF0.030828
aF1.007752
aF-0.164999
aF-0.373273
aF0.631744
aF0.328499
aa(lp1551
F2.169532
aF0.031551
aF-0.193048
aF0.214248
aF0.269705
aF1.761814
aF0.680087
aF0.542163
aF0.57195
aF0.604079
aa(lp1552
F-0.214007
aF-0.981816
aF-0.787957
aF0.908824
aF0.508582
aF-0.500372
aF-0.446694
aF-0.888206
aF0.930714
aF1.01745
aa(lp1553
F-1.222428
aF-0.925518
aF-1.144902
aF0.782537
aF0.628021
aF-0.029083
aF-1.080509
aF-1.345924
aF0.691538
aF-0.911613
aa(lp1554
F2.077857
aF0.425639
aF1.115751
aF-0.417184
aF-0.208049
aF0.347948
aF0.680087
aF-0.0872
aF-0.324959
aF0.672974
aa(lp1555
F-0.397357
aF1.157515
aF0.937279
aF-1.680048
aF-1.282997
aF-0.877403
aF0.53924
aF1.629243
aF-1.341457
aF-1.187194
aa(lp1556
F0.794413
aF0.425639
aF0.639824
aF-0.038324
aF-0.685804
aF0.347948
aF1.45475
aF0.771022
aF-0.444547
aF-0.291557
aa(lp1557
F-0.030658
aF-0.362536
aF-0.193048
aF1.098253
aF0.807179
aF1.761814
aF-0.939661
aF-0.373273
aF0.631744
aF0.604079
aa(lp1558
F-0.214007
aF-0.756623
aF-0.490503
aF1.287683
aF0.986337
aF0.724979
aF-0.305847
aF-0.544917
aF0.87092
aF1.913086
aa(lp1559
F-0.030658
aF1.157515
aF0.401861
aF-0.985472
aF-1.103839
aF-2.102753
aF0.257544
aF1.514813
aF-1.221869
aF-1.049404
aa(lp1560
F0.519389
aF0.256744
aF-0.074066
aF0.340535
aF0.030828
aF1.667556
aF0.53924
aF0.084445
aF-0.02599
aF0.397394
aa(lp1561
F-0.67238
aF0.819726
aF0.401861
aF-0.985472
aF-1.282997
aF-0.59463
aF0.046273
aF2.08696
aF-1.281663
aF-1.256089
aa(lp1562
F0.152691
aF1.382708
aF0.520842
aF-1.238045
aF-0.864962
aF-1.160176
aF0.18712
aF1.400384
aF-1.341457
aF-0.980509
aa(lp1563
F0.061016
aF-0.925518
aF-0.847448
aF1.287683
aF0.866898
aF-0.311856
aF-0.798814
aF-0.830991
aF1.050302
aF0.948555
aa(lp1564
F-0.305682
aF-0.53143
aF0.223388
aF0.593108
aF0.448863
aF1.384783
aF0.327968
aF-0.373273
aF0.392568
aF0.879659
aa(lp1565
F-0.030658
aF1.213813
aF0.461352
aF-1.680048
aF-0.9844
aF-1.631465
aF0.257544
aF1.743672
aF-1.341457
aF-1.324984
aa(lp1566
F-0.122333
aF1.495304
aF-0.431012
aF-1.553761
aF-1.103839
aF-1.160176
aF0.046273
aF1.514813
aF-1.221869
aF-1.187194
aa(lp1567
F-2.139173
aF-1.544798
aF-1.085412
aF1.161396
aF0.508582
aF-1.160176
aF-1.150933
aF-1.117065
aF1.169889
aF0.672974
aa(lp1568
F-0.122333
aF-0.700325
aF-0.668975
aF0.908824
aF0.866898
aF1.007752
aF-1.010085
aF-0.830991
aF1.229683
aF1.361925
aa(lp1569
F0.702738
aF0.98862
aF1.353715
aF-0.796043
aF-1.282997
aF-0.217599
aF2.01814
aF0.942666
aF-0.564135
aF-0.429348
aa(lp1570
F-1.130753
aF0.819726
aF1.472697
aF-1.427475
aF-1.462155
aF-0.217599
aF1.173054
aF0.885451
aF-1.221869
aF-1.049404
aa(lp1571
F-1.039079
aF-1.601096
aF-1.204393
aF1.098253
aF0.807179
aF-0.59463
aF-0.939661
aF-1.002635
aF1.169889
aF0.328499
aa(lp1572
F0.061016
aF1.439006
aF0.996769
aF-1.553761
aF-1.04412
aF-0.217599
aF0.18712
aF0.828236
aF-1.341457
aF-0.980509
aa(lp1573
F1.619484
aF0.200446
aF0.877788
aF-0.038324
aF0.030828
aF1.856072
aF1.243478
aF0.656592
aF0.631744
aF0.741869
aa(lp1574
F-0.397357
aF0.763428
aF1.829642
aF-0.796043
aF-1.04412
aF-0.500372
aF1.525173
aF0.656592
aF-1.281663
aF-1.187194
aa(lp1575
F0.427715
aF-0.644027
aF-0.371521
aF1.22454
aF0.74746
aF1.007752
aF-0.164999
aF-0.659347
aF0.631744
aF1.499716
aa(lp1576
F-0.397357
aF1.270111
aF0.520842
aF-1.616904
aF-1.462155
aF-1.160176
aF0.53924
aF1.972531
aF-1.102281
aF-1.256089
aa(lp1577
F-0.397357
aF1.101217
aF1.71066
aF-1.174902
aF-1.163558
aF-0.783145
aF0.891359
aF0.942666
aF-1.042487
aF-0.773823
aa(lp1578
F-0.305682
aF-0.700325
aF-0.847448
aF0.529964
aF1.284933
aF0.25369
aF-0.657966
aF-0.659347
aF0.930714
aF0.741869
aa(lp1579
F-0.122333
aF-0.812921
aF-0.906939
aF1.03511
aF0.090547
aF0.25369
aF-1.010085
aF-0.773776
aF1.110095
aF0.604079
aa(lp1580
F1.619484
aF1.101217
aF1.115751
aF-0.985472
aF-0.805242
aF-0.311856
aF1.313902
aF0.771022
aF-0.922899
aF-0.291557
aa(lp1581
F-0.397357
aF-1.094412
aF-1.68032
aF0.908824
aF0.986337
aF-0.029083
aF-1.221357
aF-1.231494
aF0.87092
aF0.535184
aa(lp1582
F-1.222428
aF-0.869219
aF-1.263884
aF1.540256
aF0.986337
aF-1.348691
aF-0.939661
aF-0.830991
aF1.349271
aF0.879659
aa(lp1583
F-0.947404
aF-1.375903
aF-1.382866
aF0.84568
aF0.74746
aF-0.500372
aF-1.010085
aF-1.231494
aF0.811126
aF0.535184
aa(lp1584
F-0.580706
aF-1.432201
aF-1.204393
aF0.593108
aF1.046056
aF-0.217599
aF-1.080509
aF-1.403138
aF1.050302
aF0.397394
aa(lp1585
F-0.855729
aF-1.263307
aF-0.96643
aF0.656251
aF0.209986
aF-0.029083
aF-1.432628
aF-1.403138
aF1.767829
aF0.397394
aa(lp1586
F-0.397357
aF-0.812921
aF-0.490503
aF1.350826
aF0.74746
aF0.819237
aF-0.798814
aF-0.773776
aF0.57195
aF1.01745
aa(lp1587
F-0.214007
aF1.044918
aF1.829642
aF-1.111759
aF-1.223277
aF-1.160176
aF1.45475
aF0.828236
aF-1.162075
aF-1.118299
aa(lp1588
F-0.305682
aF1.495304
aF-0.133557
aF-1.301188
aF-0.805242
aF-0.406114
aF-0.587542
aF1.343169
aF-1.102281
aF-1.049404
aa(lp1589
F-0.580706
aF1.382708
aF1.532187
aF-1.048616
aF-0.924681
aF-0.59463
aF1.45475
aF1.285954
aF-0.922899
aF-0.842718
aa(lp1590
F1.436135
aF1.044918
aF1.175242
aF-0.54347
aF-0.685804
aF-0.311856
aF1.525173
aF0.542163
aF-0.803311
aF-0.842718
aa(lp1591
F0.977762
aF-0.193641
aF-0.252539
aF0.529964
aF0.508582
aF0.536463
aF-0.164999
aF-0.830991
aF-0.145578
aF1.29303
aa(lp1592
F-1.039079
aF-1.488499
aF-1.263884
aF0.403678
aF0.926617
aF-0.217599
aF-1.010085
aF-1.17428
aF0.990508
aF0.672974
aa(lp1593
F1.527809
aF0.594533
aF1.115751
aF-0.417184
aF-0.446927
aF-0.217599
aF1.736445
aF0.771022
aF-0.683723
aF-0.704928
aa(lp1594
F1.436135
aF0.200446
aF0.044915
aF-0.480327
aF-0.327488
aF2.044587
aF0.750511
aF0.484948
aF0.57195
aF0.466289
aa(lp1595
F-0.305682
aF1.495304
aF0.461352
aF-1.427475
aF-1.462155
aF-1.81998
aF0.257544
aF1.400384
aF-1.281663
aF-1.393879
aa(lp1596
F-1.86415
aF-1.15071
aF-1.620829
aF0.908824
aF1.225214
aF-0.217599
aF-1.362204
aF-1.288709
aF1.468859
aF0.397394
aa(lp1597
F-1.130753
aF-1.263307
aF-1.561339
aF0.656251
aF1.344653
aF-0.783145
aF-1.010085
aF-0.544917
aF0.512156
aF0.604079
aa(lp1598
F-0.947404
aF-0.475132
aF-0.906939
aF1.098253
aF0.68774
aF0.536463
aF-0.939661
aF-0.945421
aF0.631744
aF1.43082
aa(lp1599
F-0.030658
aF1.044918
aF1.472697
aF-0.922329
aF-1.342716
aF-0.783145
aF1.525173
aF0.656592
aF-0.922899
aF-1.462774
aa(lp1600
F1.34446
aF0.538235
aF0.163897
aF-0.669756
aF-0.387207
aF0.819237
aF0.468816
aF0.542163
aF-0.02599
aF-0.429348
aa(lp1601
F-0.764055
aF0.98862
aF1.353715
aF-1.490618
aF-1.342716
aF-0.311856
aF1.736445
aF0.599377
aF-1.221869
aF-0.704928
aa(lp1602
F-0.489031
aF0.819726
aF0.223388
aF-1.048616
aF-1.462155
aF-1.348691
aF0.18712
aF2.20139
aF-1.221869
aF-1.876145
aa(lp1603
F-0.67238
aF1.6079
aF0.580333
aF-1.238045
aF-1.282997
aF-0.783145
aF0.116696
aF1.285954
aF-1.341457
aF-1.324984
aa(lp1604
F-0.397357
aF-0.812921
aF-1.085412
aF0.529964
aF0.986337
aF1.007752
aF-0.37627
aF-1.231494
aF0.691538
aF1.775296
aa(lp1605
F-0.030658
aF-0.475132
aF-0.133557
aF0.403678
aF0.150267
aF1.856072
aF0.18712
aF-0.144414
aF0.512156
aF0.672974
aa(lp1606
F0.061016
aF-0.869219
aF-1.025921
aF0.403678
aF0.926617
aF0.25369
aF-1.150933
aF-0.830991
aF0.930714
aF1.224135
aa(lp1607
F0.152691
aF-0.925518
aF-1.323375
aF0.719394
aF0.68774
aF0.25369
aF-0.446694
aF-0.830991
aF0.57195
aF0.810764
aa(lp1608
F0.061016
aF1.044918
aF1.532187
aF-1.238045
aF-1.223277
aF-0.688887
aF1.313902
aF0.084445
aF-1.102281
aF-0.980509
aa(lp1609
F1.802833
aF0.313042
aF0.520842
aF-0.54347
aF0.030828
aF0.819237
aF1.313902
aF0.313304
aF-0.205372
aF-0.153767
aa(lp1610
F-0.397357
aF1.157515
aF1.353715
aF-1.616904
aF-0.9844
aF-0.029083
aF0.53924
aF1.514813
aF-1.401251
aF-1.393879
aa(lp1611
F0.061016
aF-1.094412
aF-0.96643
aF0.593108
aF0.74746
aF0.347948
aF-1.150933
aF-0.773776
aF0.930714
aF1.568611
aa(lp1612
F-0.489031
aF0.707129
aF1.829642
aF-0.922329
aF-1.103839
aF-0.971661
aF1.173054
aF0.256089
aF-1.341457
aF-1.738355
aa(lp1613
F-0.214007
aF0.98862
aF-0.133557
aF-1.364332
aF-1.342716
aF-1.914238
aF-0.235423
aF1.457598
aF-1.461045
aF-1.600565
aa(lp1614
F-0.489031
aF-0.193641
aF-0.252539
aF0.529964
aF0.030828
aF1.573298
aF-0.235423
aF-0.487703
aF0.57195
aF1.086345
aa(lp1615
F0.152691
aF0.594533
aF0.877788
aF-1.174902
aF-0.924681
aF-1.065918
aF0.398392
aF1.858102
aF-1.341457
aF-1.462774
aa(lp1616
F0.152691
aF0.876024
aF-0.014576
aF-0.859186
aF-1.103839
aF-1.160176
aF-1.080509
aF1.743672
aF-1.221869
aF-1.049404
aa(lp1617
F-0.397357
aF-1.375903
aF-1.739811
aF0.087962
aF0.866898
aF-0.029083
aF-1.221357
aF-1.17428
aF0.392568
aF0.741869
aa(lp1618
F0.702738
aF-0.24994
aF-0.252539
aF0.908824
aF0.68774
aF1.667556
aF-0.37627
aF-0.716562
aF0.631744
aF1.499716
aa(lp1619
F1.436135
aF0.481937
aF0.937279
aF-0.417184
aF-0.387207
aF-0.217599
aF1.173054
aF0.198874
aF-1.102281
aF-0.015977
aa(lp1620
F-0.489031
aF-1.094412
aF-0.96643
aF0.529964
aF1.404372
aF0.25369
aF-0.517118
aF-0.716562
aF0.990508
aF0.397394
aa(lp1621
F-0.489031
aF0.707129
aF1.472697
aF-1.238045
aF-1.282997
aF-0.500372
aF1.736445
aF0.771022
aF-0.863105
aF-1.049404
aa(lp1622
F-0.397357
aF1.326409
aF0.996769
aF-1.364332
aF-1.521874
aF-0.971661
aF0.750511
aF0.885451
aF-1.221869
aF-1.80725
aa(lp1623
F-0.67238
aF-1.207009
aF-1.144902
aF0.529964
aF1.464091
aF-1.537207
aF-1.080509
aF-1.288709
aF0.990508
aF-0.222662
aa(lp1624
F-0.397357
aF-0.869219
aF-1.025921
aF1.287683
aF1.464091
aF-0.217599
aF-1.432628
aF-0.888206
aF0.631744
aF0.190708
aa(lp1625
F0.061016
aF1.157515
aF1.294224
aF-0.985472
aF-1.04412
aF-0.500372
aF0.891359
aF0.771022
aF-1.221869
aF-0.980509
aa(lp1626
F-1.130753
aF0.819726
aF1.829642
aF-0.985472
aF-1.103839
aF-0.783145
aF0.750511
aF0.542163
aF-0.863105
aF-1.256089
aa(lp1627
F1.252786
aF-0.024747
aF-0.668975
aF0.277392
aF0.74746
aF1.007752
aF0.116696
aF-0.0872
aF-0.085784
aF1.224135
aa(lp1628
F-1.039079
aF-1.544798
aF-1.799302
aF0.908824
aF1.284933
aF-0.500372
aF-1.150933
aF-1.345924
aF0.87092
aF0.672974
aa(lp1629
F1.252786
aF0.538235
aF-0.133557
aF-0.7329
aF-0.387207
aF0.724979
aF-0.164999
aF0.141659
aF-0.205372
aF-1.118299
aa(lp1630
F-0.030658
aF1.270111
aF1.413206
aF-1.806334
aF-0.864962
aF-2.102753
aF1.45475
aF0.942666
aF-0.803311
aF-0.980509
aa(lp1631
F-1.130753
aF-0.700325
aF-0.96643
aF1.413969
aF1.464091
aF0.347948
aF-1.432628
aF-1.002635
aF1.409065
aF0.672974
aa(lp1632
F-0.489031
aF-1.375903
aF-1.085412
aF0.593108
aF1.404372
aF-0.029083
aF-1.221357
aF-0.888206
aF0.751332
aF-0.429348
aa(lp1633
F-2.230848
aF-0.981816
aF-1.025921
aF1.03511
aF0.926617
aF-0.311856
aF-1.150933
aF-0.602132
aF0.87092
aF0.052918
aa(lp1634
F-0.489031
aF1.720497
aF0.758806
aF-0.985472
aF-1.163558
aF-1.914238
aF0.53924
aF1.11431
aF-1.281663
aF-0.911613
aa(lp1635
F-0.947404
aF1.270111
aF0.937279
aF-0.796043
aF-0.805242
aF-0.971661
aF0.257544
aF1.629243
aF-1.162075
aF-1.393879
aa(lp1636
F2.352881
aF0.594533
aF0.937279
aF0.214248
aF-0.267769
aF0.159432
aF0.680087
aF0.542163
aF-0.324959
aF0.672974
aa(lp1637
F-0.855729
aF-1.038114
aF-1.204393
aF1.161396
aF0.866898
aF0.159432
aF-1.291781
aF-1.288709
aF1.528653
aF0.672974
aa(lp1638
F1.619484
aF0.425639
aF0.699315
aF-0.985472
aF-0.506646
aF0.819237
aF0.961783
aF0.771022
aF-0.384753
aF-0.773823
aa(lp1639
F0.061016
aF1.044918
aF0.639824
aF-1.111759
aF-1.04412
aF-2.385527
aF0.327968
aF1.858102
aF-1.042487
aF-1.324984
aa(lp1640
F-1.589126
aF-1.488499
aF-0.847448
aF0.719394
aF0.68774
aF-0.406114
aF-0.939661
aF-1.002635
aF1.050302
aF0.604079
aa(lp1641
F0.061016
aF0.819726
aF1.353715
aF-0.922329
aF-1.282997
aF-1.065918
aF1.666021
aF0.885451
aF-1.401251
aF-1.738355
aa(lp1642
F-0.489031
aF-1.038114
aF-1.025921
aF0.719394
aF1.105775
aF0.630721
aF-0.869237
aF-0.830991
aF0.811126
aF0.672974
aa(lp1643
F0.061016
aF1.495304
aF1.115751
aF-1.301188
aF-1.223277
aF-0.406114
aF0.750511
aF1.285954
aF-1.461045
aF-1.462774
aa(lp1644
F2.077857
aF0.650831
aF0.520842
aF-1.174902
aF-0.566365
aF1.196267
aF0.820935
aF0.313304
aF-0.743517
aF-0.567138
aa(lp1645
F1.436135
aF0.313042
aF1.115751
aF0.024819
aF-0.685804
aF0.25369
aF1.173054
aF0.370518
aF-0.564135
aF-0.015977
aa(lp1646
F0.244365
aF0.98862
aF1.532187
aF-1.174902
aF-1.223277
aF-0.406114
aF1.45475
aF0.771022
aF-0.803311
aF-0.980509
aa(lp1647
F-0.305682
aF0.538235
aF1.889133
aF-1.553761
aF-1.282997
aF-0.500372
aF1.313902
aF0.542163
aF-1.162075
aF-1.256089
aa(lp1648
F-0.489031
aF0.707129
aF0.461352
aF-1.553761
aF-1.342716
aF-0.971661
aF-0.024151
aF1.743672
aF-1.401251
aF-1.187194
aa(lp1649
F0.33604
aF-0.193641
aF0.937279
aF-0.606613
aF-0.208049
aF0.819237
aF0.53924
aF-0.316058
aF0.093598
aF0.397394
aa(lp1650
F-0.489031
aF-0.869219
aF-1.204393
aF0.214248
aF1.464091
aF0.159432
aF-0.587542
aF-1.231494
aF0.691538
aF0.672974
aa(lp1651
F1.986182
aF0.425639
aF0.34237
aF0.087962
aF-0.028891
aF0.442206
aF0.750511
aF0.828236
aF-0.803311
aF0.466289
aa(lp1652
F0.427715
aF-0.700325
aF-0.193048
aF0.277392
aF0.448863
aF2.138845
aF0.257544
aF-0.258844
aF0.512156
aF0.466289
aa(lp1653
F1.436135
aF0.932322
aF1.115751
aF-0.796043
aF-0.805242
aF-0.123341
aF1.525173
aF0.484948
aF-0.683723
aF-0.429348
aa(lp1654
F-0.214007
aF1.382708
aF0.520842
aF-1.616904
aF-1.402435
aF-1.725722
aF0.18712
aF2.08696
aF-1.162075
aF-0.842718
aa(lp1655
F-0.214007
aF-0.869219
aF-0.96643
aF0.782537
aF1.046056
aF0.536463
aF-1.010085
aF-0.888206
aF0.57195
aF0.879659
aa(lp1656
F0.152691
aF0.763428
aF1.472697
aF-1.364332
aF-1.103839
aF-0.877403
aF1.45475
aF0.599377
aF-1.162075
aF-1.187194
aa(lp1657
F-0.305682
aF0.932322
aF1.948624
aF-1.301188
aF-1.04412
aF-1.160176
aF1.173054
aF0.942666
aF-0.982693
aF-0.773823
aa(lp1658
F0.152691
aF1.101217
aF-0.193048
aF-0.985472
aF-1.342716
aF-1.914238
aF-0.164999
aF2.20139
aF-1.341457
aF-1.187194
aa(lp1659
F-0.397357
aF-0.812921
aF-1.204393
aF1.161396
aF0.68774
aF0.25369
aF-1.010085
aF-0.773776
aF1.409065
aF0.672974
aa(lp1660
F1.069437
aF0.538235
aF0.937279
aF0.024819
aF-1.103839
aF0.347948
aF1.384326
aF0.771022
aF-0.623929
aF-0.153767
aa(lp1661
F-1.589126
aF-0.756623
aF-1.144902
aF1.477112
aF1.464091
aF0.819237
aF-1.150933
aF-0.830991
aF1.528653
aF0.466289
aa(lp1662
F-0.489031
aF-1.15071
aF-0.371521
aF1.350826
aF-0.14833
aF1.196267
aF-0.37627
aF-1.002635
aF0.930714
aF0.741869
aa(lp1663
F0.244365
aF-0.081045
aF0.223388
aF0.529964
aF0.568302
aF2.233103
aF0.116696
aF-0.487703
aF0.213186
aF0.810764
aa(lp1664
F1.802833
aF0.538235
aF0.461352
aF0.024819
aF-0.14833
aF0.724979
aF0.820935
aF0.542163
aF-1.102281
aF0.397394
aa(lp1665
F1.161111
aF1.044918
aF1.115751
aF-0.606613
aF-0.864962
aF-0.59463
aF1.45475
aF-0.373273
aF-0.982693
aF-0.567138
aa(lp1666
F-0.67238
aF-1.15071
aF-1.085412
aF1.161396
aF1.523811
aF-0.406114
aF-1.150933
aF-1.05985
aF0.751332
aF0.397394
aa(lp1667
F-0.122333
aF-0.644027
aF-0.371521
aF1.22454
aF0.090547
aF0.819237
aF-0.024151
aF-0.430488
aF0.631744
aF0.535184
aa(lp1668
F0.061016
aF1.270111
aF1.472697
aF-1.301188
aF-1.342716
aF-0.688887
aF1.243478
aF0.942666
aF-0.743517
aF-1.256089
aa(lp1669
F-0.122333
aF1.495304
aF0.223388
aF-1.616904
aF-0.805242
aF-1.348691
aF0.398392
aF1.514813
aF-1.162075
aF-1.187194
aa(lp1670
F1.436135
aF-0.024747
aF-0.252539
aF0.214248
aF0.508582
aF1.761814
aF0.53924
aF-0.144414
aF0.392568
aF0.604079
aa(lp1671
F-0.305682
aF1.382708
aF1.889133
aF-1.553761
aF-1.342716
aF-2.385527
aF0.961783
aF0.713807
aF-1.341457
aF-0.911613
aa(lp1672
F-0.855729
aF-1.375903
aF-1.739811
aF1.161396
aF1.165495
aF0.724979
aF-0.939661
aF-0.544917
aF0.27298
aF0.741869
aa(lp1673
F0.061016
aF-0.644027
aF-0.787957
aF0.84568
aF0.926617
aF0.347948
aF-0.939661
aF-1.05985
aF1.528653
aF1.01745
aa(lp1674
F-0.764055
aF-1.15071
aF-1.085412
aF1.098253
aF0.926617
aF0.159432
aF-1.221357
aF-1.05985
aF1.409065
aF-0.153767
aa(lp1675
F1.619484
aF0.144148
aF0.401861
aF0.340535
aF-0.685804
aF1.761814
aF0.891359
aF0.542163
aF-0.085784
aF-0.015977
aa(lp1676
F1.161111
aF0.819726
aF1.115751
aF-0.669756
aF-0.566365
aF-0.406114
aF1.45475
aF0.713807
aF-1.102281
aF-0.498243
aa(lp1677
F-0.489031
aF-0.756623
aF-1.025921
aF0.466821
aF1.344653
aF0.065175
aF-0.798814
aF-0.659347
aF0.512156
aF0.741869
aa(lp1678
F-0.764055
aF-1.432201
aF-0.96643
aF0.529964
aF0.807179
aF0.536463
aF-0.869237
aF-0.830991
aF1.169889
aF1.01745
aa(lp1679
F0.886087
aF-0.362536
aF-0.668975
aF0.529964
aF1.225214
aF0.819237
aF-0.939661
aF-1.231494
aF1.050302
aF1.361925
aa(lp1680
F-0.67238
aF0.481937
aF0.520842
aF-1.174902
aF-1.342716
aF-1.631465
aF-0.164999
aF1.514813
aF-1.341457
aF-1.393879
aa(lp1681
F-0.67238
aF-1.207009
aF-0.96643
aF1.413969
aF1.58353
aF-0.217599
aF-1.432628
aF-0.945421
aF1.528653
aF0.328499
aa(lp1682
F-0.489031
aF1.270111
aF0.223388
aF-1.301188
aF-1.282997
aF-1.442949
aF0.257544
aF1.858102
aF-1.102281
aF-1.462774
aa(lp1683
F-0.489031
aF-0.644027
aF-0.133557
aF0.403678
aF0.508582
aF0.724979
aF0.116696
aF-0.258844
aF0.392568
aF0.948555
aa(lp1684
F-0.764055
aF-1.038114
aF-1.144902
aF0.84568
aF1.464091
aF0.347948
aF-1.503052
aF-1.17428
aF0.452362
aF0.259603
aa(lp1685
F1.252786
aF0.36934
aF1.115751
aF-0.985472
aF-0.864962
aF-0.123341
aF1.595597
aF0.828236
aF-1.162075
aF-1.049404
aa(lp1686
F1.34446
aF0.876024
aF1.05626
aF-0.038324
aF0.090547
aF1.573298
aF-0.798814
aF-0.659347
aF0.392568
aF0.879659
aasS'train_y'
p1687
(lp1688
(lp1689
F3.604247
aF-6.800017
aa(lp1690
F8.993802
aF-16.827764
aa(lp1691
F2.431366
aF-4.582278
aa(lp1692
F9.510822
aF-17.833029
aa(lp1693
F1.832517
aF-3.451702
aa(lp1694
F22.39228
aF-14.733419
aa(lp1695
F9.65078
aF-18.069448
aa(lp1696
F4.306746
aF-8.103264
aa(lp1697
F10.372755
aF-19.542372
aa(lp1698
F7.074849
aF-13.195622
aa(lp1699
F6.309412
aF-11.77591
aa(lp1700
F8.201972
aF-15.334458
aa(lp1701
F4.54662
aF-8.55526
aa(lp1702
F14.547328
aF-18.868307
aa(lp1703
F9.192308
aF-17.216254
aa(lp1704
F1.312505
aF-2.487777
aa(lp1705
F9.397314
aF-17.614298
aa(lp1706
F11.450391
aF-20.429832
aa(lp1707
F8.476939
aF-15.858322
aa(lp1708
F5.032982
aF-9.446833
aa(lp1709
F24.360104
aF-13.695711
aa(lp1710
F11.129133
aF-20.470673
aa(lp1711
F10.742907
aF-20.146632
aa(lp1712
F17.926181
aF-17.098917
aa(lp1713
F10.831984
aF-20.281553
aa(lp1714
F19.799276
aF-16.113478
aa(lp1715
F6.786269
aF-12.683448
aa(lp1716
F19.662579
aF-16.184231
aa(lp1717
F8.40253
aF-15.696952
aa(lp1718
F16.185532
aF-18.03925
aa(lp1719
F8.666797
aF-16.199334
aa(lp1720
F7.685073
aF-14.333387
aa(lp1721
F13.365844
aF-19.463193
aa(lp1722
F4.463977
aF-8.415348
aa(lp1723
F12.121207
aF-20.153545
aa(lp1724
F10.850898
aF-20.306947
aa(lp1725
F16.363351
aF-17.944299
aa(lp1726
F1.221197
aF-2.294492
aa(lp1727
F18.477425
aF-16.823466
aa(lp1728
F2.14615
aF-3.988308
aa(lp1729
F17.272617
aF-17.462775
aa(lp1730
F26.0248
aF-12.802016
aa(lp1731
F5.780508
aF-10.81247
aa(lp1732
F1.874086
aF-3.527977
aa(lp1733
F26.794237
aF-12.40172
aa(lp1734
F27.045811
aF-12.26441
aa(lp1735
F11.864841
aF-20.233505
aa(lp1736
F26.289683
aF-12.653014
aa(lp1737
F5.785878
aF-10.819695
aa(lp1738
F7.786507
aF-14.511929
aa(lp1739
F1.550486
aF-2.925891
aa(lp1740
F19.798447
aF-16.124955
aa(lp1741
F3.334005
aF-6.308792
aa(lp1742
F12.255168
aF-20.040659
aa(lp1743
F12.719563
aF-19.797611
aa(lp1744
F20.790262
aF-15.589623
aa(lp1745
F7.037129
aF-13.116689
aa(lp1746
F6.54421
aF-12.229368
aa(lp1747
F10.342541
aF-19.468206
aa(lp1748
F8.759473
aF-16.375953
aa(lp1749
F16.447059
aF-17.89819
aa(lp1750
F4.638702
aF-8.719499
aa(lp1751
F7.800461
aF-14.555975
aa(lp1752
F15.298194
aF-18.512309
aa(lp1753
F13.617842
aF-19.347186
aa(lp1754
F26.744034
aF-12.417039
aa(lp1755
F8.682514
aF-16.256369
aa(lp1756
F24.356501
aF-13.69652
aa(lp1757
F9.911351
aF-18.630513
aa(lp1758
F1.619767
aF-3.064342
aa(lp1759
F2.1683
aF-4.08931
aa(lp1760
F3.473016
aF-6.561066
aa(lp1761
F4.315463
aF-8.117745
aa(lp1762
F6.635464
aF-12.38644
aa(lp1763
F3.085808
aF-5.828402
aa(lp1764
F16.641481
aF-17.798791
aa(lp1765
F8.220881
aF-15.342193
aa(lp1766
F8.884992
aF-16.629411
aa(lp1767
F14.853884
aF-18.728358
aa(lp1768
F19.920166
aF-16.052419
aa(lp1769
F7.256876
aF-13.535471
aa(lp1770
F8.014227
aF-14.977748
aa(lp1771
F21.001979
aF-15.484501
aa(lp1772
F23.076188
aF-14.369649
aa(lp1773
F8.182974
aF-15.275172
aa(lp1774
F13.136311
aF-19.571629
aa(lp1775
F9.96481
aF-18.678987
aa(lp1776
F21.227583
aF-15.352468
aa(lp1777
F5.712367
aF-10.676672
aa(lp1778
F13.555435
aF-19.35934
aa(lp1779
F13.081594
aF-19.625825
aa(lp1780
F25.134873
aF-13.278254
aa(lp1781
F2.33297
aF-4.396977
aa(lp1782
F11.57318
aF-20.410571
aa(lp1783
F22.990399
aF-14.415367
aa(lp1784
F2.374867
aF-4.489202
aa(lp1785
F3.807807
aF-7.187464
aa(lp1786
F15.353192
aF-18.459331
aa(lp1787
F13.901865
aF-19.174602
aa(lp1788
F4.465852
aF-8.408407
aa(lp1789
F1.135492
aF-2.140359
aa(lp1790
F10.118822
aF-18.982207
aa(lp1791
F9.766224
aF-18.306356
aa(lp1792
F1.377552
aF-2.592044
aa(lp1793
F3.962748
aF-7.485899
aa(lp1794
F1.187691
aF-2.2272
aa(lp1795
F19.456507
aF-16.310873
aa(lp1796
F11.380369
aF-20.455873
aa(lp1797
F7.606463
aF-14.184339
aa(lp1798
F6.091645
aF-11.388033
aa(lp1799
F10.700836
aF-20.078737
aa(lp1800
F14.931367
aF-18.676362
aa(lp1801
F3.487117
aF-6.600444
aa(lp1802
F5.541142
aF-10.378821
aa(lp1803
F2.805553
aF-5.328812
aa(lp1804
F7.264254
aF-13.563502
aa(lp1805
F8.052981
aF-15.039259
aa(lp1806
F11.646824
aF-20.376601
aa(lp1807
F0.89802
aF-1.71322
aa(lp1808
F4.893917
aF-9.181992
aa(lp1809
F8.428117
aF-15.733664
aa(lp1810
F10.827189
aF-20.295076
aa(lp1811
F26.291417
aF-12.663088
aa(lp1812
F6.680912
aF-12.500728
aa(lp1813
F18.517574
aF-16.796186
aa(lp1814
F7.587656
aF-14.145394
aa(lp1815
F4.225328
aF-7.965209
aa(lp1816
F20.368674
aF-15.812859
aa(lp1817
F21.57016
aF-15.164894
aa(lp1818
F1.90565
aF-3.590507
aa(lp1819
F13.50504
aF-19.422346
aa(lp1820
F4.796973
aF-9.006546
aa(lp1821
F27.261729
aF-12.147153
aa(lp1822
F4.350747
aF-8.210973
aa(lp1823
F7.76785
aF-14.49784
aa(lp1824
F23.48741
aF-14.152854
aa(lp1825
F11.206672
aF-20.478752
aa(lp1826
F9.881879
aF-18.522337
aa(lp1827
F5.802551
aF-10.866167
aa(lp1828
F10.615208
aF-19.920355
aa(lp1829
F25.13002
aF-13.286372
aa(lp1830
F9.155881
aF-17.164897
aa(lp1831
F1.677072
aF-3.156306
aa(lp1832
F1.16862
aF-2.191936
aa(lp1833
F24.689079
aF-13.511474
aa(lp1834
F8.322144
aF-15.561944
aa(lp1835
F9.213833
aF-17.242845
aa(lp1836
F9.198366
aF-17.243611
aa(lp1837
F9.116518
aF-17.086694
aa(lp1838
F9.036521
aF-16.927812
aa(lp1839
F7.713035
aF-14.383196
aa(lp1840
F13.175677
aF-19.558307
aa(lp1841
F18.17924
aF-16.980687
aa(lp1842
F9.34878
aF-17.536033
aa(lp1843
F9.926389
aF-18.625213
aa(lp1844
F6.269076
aF-11.704273
aa(lp1845
F18.496637
aF-16.80391
aa(lp1846
F8.470117
aF-15.84327
aa(lp1847
F17.936577
aF-17.108354
aa(lp1848
F10.14675
aF-19.051572
aa(lp1849
F11.07552
aF-20.474775
aa(lp1850
F17.723254
aF-17.21922
aa(lp1851
F9.412661
aF-17.625882
aa(lp1852
F19.326715
aF-16.369311
aa(lp1853
F13.662796
aF-19.314053
aa(lp1854
F24.131139
aF-13.818487
aa(lp1855
F7.973516
aF-14.861693
aa(lp1856
F22.554614
aF-14.659397
aa(lp1857
F7.911399
aF-14.778861
aa(lp1858
F14.097441
aF-19.10308
aa(lp1859
F1.166038
aF-2.166894
aa(lp1860
F14.622165
aF-18.821509
aa(lp1861
F15.703254
aF-18.278279
aa(lp1862
F14.385531
aF-18.966994
aa(lp1863
F12.51258
aF-19.897366
aa(lp1864
F0.901526
aF-1.687062
aa(lp1865
F16.74863
aF-17.740448
aa(lp1866
F19.52931
aF-16.257431
aa(lp1867
F18.919045
aF-16.593558
aa(lp1868
F4.718721
aF-8.809349
aa(lp1869
F23.612432
aF-14.088936
aa(lp1870
F2.884665
aF-5.438552
aa(lp1871
F13.212604
aF-19.560675
aa(lp1872
F4.801465
aF-9.015871
aa(lp1873
F20.324777
aF-15.841469
aa(lp1874
F9.529331
aF-17.859862
aa(lp1875
F24.210984
aF-13.760753
aa(lp1876
F5.961007
aF-11.143438
aa(lp1877
F15.768682
aF-18.237382
aa(lp1878
F22.644855
aF-14.606898
aa(lp1879
F6.129669
aF-11.449871
aa(lp1880
F8.470102
aF-15.836181
aa(lp1881
F26.776026
aF-12.401905
aa(lp1882
F10.816787
aF-20.295877
aa(lp1883
F17.717513
aF-17.223197
aa(lp1884
F8.452936
aF-15.792492
aa(lp1885
F27.287416
aF-12.130625
aa(lp1886
F4.505282
aF-8.468011
aa(lp1887
F25.584478
aF-13.037794
aa(lp1888
F22.14892
aF-14.860392
aa(lp1889
F12.273869
aF-20.026261
aa(lp1890
F3.119259
aF-5.885415
aa(lp1891
F3.306587
aF-6.265253
aa(lp1892
F12.454268
aF-19.951807
aa(lp1893
F15.441808
aF-18.407736
aa(lp1894
F25.39596
aF-13.130925
aa(lp1895
F6.984671
aF-13.02141
aa(lp1896
F14.375583
aF-18.950208
aa(lp1897
F8.020215
aF-14.969574
aa(lp1898
F3.530967
aF-6.705337
aa(lp1899
F14.831583
aF-18.725513
aa(lp1900
F2.35976
aF-4.444589
aa(lp1901
F5.568823
aF-10.43977
aa(lp1902
F15.70042
aF-18.278449
aa(lp1903
F9.686734
aF-18.138854
aa(lp1904
F7.779716
aF-14.509716
aa(lp1905
F7.210487
aF-13.452913
aa(lp1906
F13.589931
aF-19.359159
aa(lp1907
F22.998309
aF-14.408502
aa(lp1908
F9.424919
aF-17.644938
aa(lp1909
F7.535625
aF-14.051657
aa(lp1910
F2.847229
aF-5.363282
aa(lp1911
F8.300401
aF-15.507061
aa(lp1912
F11.818233
aF-20.318571
aa(lp1913
F25.224356
aF-13.232125
aa(lp1914
F6.298318
aF-11.794552
aa(lp1915
F9.633594
aF-18.055027
aa(lp1916
F7.284341
aF-13.575606
aa(lp1917
F18.161649
aF-16.992646
aa(lp1918
F25.891358
aF-12.872397
aa(lp1919
F22.60065
aF-14.634433
aa(lp1920
F1.39982
aF-2.642711
aa(lp1921
F21.682518
aF-15.1127
aa(lp1922
F9.911762
aF-18.563741
aa(lp1923
F14.910002
aF-18.683053
aa(lp1924
F2.585608
aF-4.904767
aa(lp1925
F26.380263
aF-12.617726
aa(lp1926
F11.600686
aF-20.411391
aa(lp1927
F5.271153
aF-9.873909
aa(lp1928
F12.708275
aF-19.795374
aa(lp1929
F20.180423
aF-15.920481
aa(lp1930
F2.789676
aF-5.245811
aa(lp1931
F9.699678
aF-18.201193
aa(lp1932
F22.125098
aF-14.879914
aa(lp1933
F5.04596
aF-9.448326
aa(lp1934
F24.256032
aF-13.748606
aa(lp1935
F24.02029
aF-13.868521
aa(lp1936
F18.773213
aF-16.655634
aa(lp1937
F8.529297
aF-15.994464
aa(lp1938
F7.840805
aF-14.625514
aa(lp1939
F17.134335
aF-17.536436
aa(lp1940
F10.547066
aF-20.002951
aa(lp1941
F5.760483
aF-10.798748
aa(lp1942
F1.124074
aF-2.111699
aa(lp1943
F27.318322
aF-12.119335
aa(lp1944
F2.657588
aF-5.006815
aa(lp1945
F4.05879
aF-7.66713
aa(lp1946
F9.936935
aF-18.611936
aa(lp1947
F7.370692
aF-13.740443
aa(lp1948
F3.598682
aF-6.827845
aa(lp1949
F24.918029
aF-13.396412
aa(lp1950
F27.229174
aF-12.164528
aa(lp1951
F18.368375
aF-16.86997
aa(lp1952
F11.454418
aF-20.447
aa(lp1953
F4.820466
aF-9.044966
aa(lp1954
F15.434414
aF-18.423157
aa(lp1955
F23.510392
aF-14.132656
aa(lp1956
F15.769936
aF-18.238929
aa(lp1957
F1.45296
aF-2.735934
aa(lp1958
F23.087243
aF-14.36031
aa(lp1959
F9.278489
aF-17.394792
aa(lp1960
F23.204411
aF-14.308884
aa(lp1961
F25.585628
aF-13.037861
aa(lp1962
F3.364526
aF-6.362733
aa(lp1963
F26.762602
aF-12.41013
aa(lp1964
F13.918572
aF-19.154227
aa(lp1965
F24.501144
aF-13.613916
aa(lp1966
F15.90805
aF-18.168646
aa(lp1967
F20.233832
aF-15.887458
aa(lp1968
F12.265851
aF-20.04369
aa(lp1969
F3.313936
aF-6.234388
aa(lp1970
F7.780016
aF-14.516101
aa(lp1971
F5.103512
aF-9.561006
aa(lp1972
F13.152477
aF-19.566627
aa(lp1973
F5.131554
aF-9.637771
aa(lp1974
F20.281234
aF-15.861883
aa(lp1975
F11.774349
aF-20.293061
aa(lp1976
F22.963807
aF-14.431333
aa(lp1977
F25.865931
aF-12.88829
aa(lp1978
F5.005082
aF-9.364253
aa(lp1979
F13.644178
aF-19.313909
aa(lp1980
F13.159059
aF-19.577136
aa(lp1981
F21.746841
aF-15.078476
aa(lp1982
F3.021379
aF-5.704267
aa(lp1983
F18.207881
aF-16.954857
aa(lp1984
F23.456968
aF-14.160127
aa(lp1985
F15.011594
aF-18.627186
aa(lp1986
F5.304976
aF-9.930714
aa(lp1987
F12.281262
aF-20.029571
aa(lp1988
F8.727508
aF-16.357792
aa(lp1989
F10.907858
aF-20.370502
aa(lp1990
F4.109496
aF-7.767622
aa(lp1991
F25.346339
aF-13.166944
aa(lp1992
F6.582548
aF-12.300737
aa(lp1993
F2.842534
aF-5.371383
aa(lp1994
F6.055981
aF-11.339953
aa(lp1995
F1.370641
aF-2.594912
aa(lp1996
F3.118732
aF-5.858685
aa(lp1997
F6.533721
aF-12.205989
aa(lp1998
F6.593153
aF-12.321567
aa(lp1999
F17.510876
aF-17.33378
aa(lp2000
F24.795199
aF-13.455191
aa(lp2001
F12.71647
aF-19.801027
aa(lp2002
F26.605307
aF-12.49905
aa(lp2003
F17.615111
aF-17.270075
aa(lp2004
F5.066379
aF-9.505516
aa(lp2005
F10.125904
aF-19.037142
aa(lp2006
F9.943075
aF-18.633019
aa(lp2007
F16.184579
aF-18.012636
aa(lp2008
F1.860446
aF-3.512665
aa(lp2009
F8.558816
aF-16.014787
aa(lp2010
F4.71858
aF-8.858405
aa(lp2011
F13.882729
aF-19.212144
aa(lp2012
F1.885944
aF-3.570754
aa(lp2013
F21.174904
aF-15.384651
aa(lp2014
F2.104082
aF-3.935166
aa(lp2015
F5.054537
aF-9.482008
aa(lp2016
F8.721275
aF-16.311878
aa(lp2017
F10.584206
aF-19.956595
aa(lp2018
F6.150102
aF-11.508815
aa(lp2019
F26.167316
aF-12.728855
aa(lp2020
F20.340561
aF-15.825782
aa(lp2021
F18.003288
aF-17.082027
aa(lp2022
F9.446317
aF-17.71604
aa(lp2023
F7.547961
aF-14.053366
aa(lp2024
F4.541347
aF-8.541584
aa(lp2025
F0.959789
aF-1.791812
aa(lp2026
F15.28102
aF-18.494242
aa(lp2027
F13.602259
aF-19.358176
aa(lp2028
F10.447373
aF-19.609807
aa(lp2029
F11.815494
aF-20.249023
aa(lp2030
F18.067256
aF-17.029869
aa(lp2031
F25.260443
aF-13.209793
aa(lp2032
F22.66299
aF-14.596206
aa(lp2033
F7.764328
aF-14.485903
aa(lp2034
F2.604406
aF-4.919715
aa(lp2035
F22.253725
aF-14.803966
aa(lp2036
F14.200998
aF-19.041403
aa(lp2037
F26.313626
aF-12.649176
aa(lp2038
F27.09889
aF-12.223453
aa(lp2039
F11.776575
aF-20.290538
aa(lp2040
F14.300826
aF-18.991711
aa(lp2041
F5.177989
aF-9.717061
aa(lp2042
F20.310496
aF-15.841396
aa(lp2043
F10.331984
aF-19.469672
aa(lp2044
F7.301947
aF-13.620716
aa(lp2045
F16.7099
aF-17.756028
aa(lp2046
F9.886213
aF-18.518167
aa(lp2047
F19.824302
aF-16.112951
aa(lp2048
F25.892613
aF-12.874239
aa(lp2049
F10.940596
aF-20.392515
aa(lp2050
F6.945007
aF-12.970045
aa(lp2051
F10.879939
aF-20.352062
aa(lp2052
F9.671446
aF-18.15361
aa(lp2053
F27.033696
aF-12.268068
aa(lp2054
F11.061556
aF-20.461375
aa(lp2055
F10.67143
aF-20.046837
aa(lp2056
F10.511196
aF-19.710575
aa(lp2057
F19.497825
aF-16.286141
aa(lp2058
F21.93625
aF-14.978159
aa(lp2059
F6.762824
aF-12.630306
aa(lp2060
F3.359782
aF-6.341276
aa(lp2061
F10.380559
aF-19.473094
aa(lp2062
F24.736087
aF-13.490025
aa(lp2063
F10.598566
aF-19.904809
aa(lp2064
F20.56368
aF-15.722169
aa(lp2065
F1.390766
aF-2.606985
aa(lp2066
F13.571028
aF-19.365745
aa(lp2067
F3.84526
aF-7.271334
aa(lp2068
F5.296132
aF-9.946431
aa(lp2069
F6.509236
aF-12.151473
aa(lp2070
F3.010394
aF-5.712449
aa(lp2071
F10.242235
aF-19.229749
aa(lp2072
F12.509826
aF-19.915795
aa(lp2073
F1.643144
aF-3.091135
aa(lp2074
F4.387347
aF-8.272808
aa(lp2075
F6.047595
aF-11.301287
aa(lp2076
F15.453033
aF-18.39898
aa(lp2077
F16.598947
aF-17.816786
aa(lp2078
F23.564534
aF-14.111051
aa(lp2079
F4.294502
aF-8.100986
aa(lp2080
F23.626043
aF-14.077434
aa(lp2081
F21.157237
aF-15.399499
aa(lp2082
F9.746621
aF-18.266555
aa(lp2083
F3.080248
aF-5.849148
aa(lp2084
F8.923133
aF-16.723563
aa(lp2085
F14.474693
aF-18.907142
aa(lp2086
F8.913749
aF-16.679571
aa(lp2087
F9.14785
aF-17.132902
aa(lp2088
F13.362421
aF-19.477787
aa(lp2089
F10.13095
aF-19.014561
aa(lp2090
F17.057647
aF-17.574986
aa(lp2091
F23.535557
aF-14.114284
aa(lp2092
F4.855383
aF-9.117809
aa(lp2093
F26.809425
aF-12.381078
aa(lp2094
F2.061487
aF-3.880241
aa(lp2095
F1.428239
aF-2.676099
aa(lp2096
F21.334674
aF-15.289868
aa(lp2097
F5.736969
aF-10.722445
aa(lp2098
F10.560588
aF-19.925624
aa(lp2099
F4.552687
aF-8.558107
aa(lp2100
F23.845593
aF-13.957497
aa(lp2101
F2.209035
aF-4.131926
aa(lp2102
F22.118772
aF-14.884866
aa(lp2103
F4.626942
aF-8.68165
aa(lp2104
F4.604276
aF-8.655379
aa(lp2105
F21.786948
aF-15.050284
aa(lp2106
F25.814652
aF-12.904616
aa(lp2107
F4.278558
aF-8.063228
aa(lp2108
F9.393407
aF-17.619847
aa(lp2109
F22.185073
aF-14.842935
aa(lp2110
F9.441331
aF-17.687747
aa(lp2111
F19.244927
aF-16.405495
aa(lp2112
F9.989241
aF-18.738813
aa(lp2113
F25.715405
aF-12.964188
aa(lp2114
F3.327668
aF-6.286903
aa(lp2115
F14.546067
aF-18.864456
aa(lp2116
F11.043219
aF-20.445584
aa(lp2117
F15.66078
aF-18.301248
aa(lp2118
F24.947648
aF-13.37356
aa(lp2119
F3.333551
aF-6.295156
aa(lp2120
F6.342107
aF-11.858459
aa(lp2121
F21.710403
aF-15.099664
aa(lp2122
F20.902623
aF-15.525554
aa(lp2123
F7.322396
aF-13.644192
aa(lp2124
F0.975428
aF-1.846141
aa(lp2125
F5.450943
aF-10.229684
aa(lp2126
F14.090899
aF-19.094978
aa(lp2127
F14.281225
aF-19.00212
aa(lp2128
F15.228727
aF-18.519832
aa(lp2129
F4.244094
aF-7.991907
aa(lp2130
F7.052429
aF-13.144792
aa(lp2131
F26.33743
aF-12.640784
aa(lp2132
F16.129521
aF-18.066429
aa(lp2133
F18.626621
aF-16.733614
aa(lp2134
F4.757756
aF-8.929269
aa(lp2135
F1.975135
aF-3.710373
aa(lp2136
F2.372998
aF-4.461935
aa(lp2137
F17.526078
aF-17.325558
aa(lp2138
F10.965944
aF-20.393052
aa(lp2139
F24.939633
aF-13.38897
aa(lp2140
F15.033112
aF-18.631771
aa(lp2141
F9.025698
aF-16.900373
aa(lp2142
F8.248894
aF-15.402464
aa(lp2143
F14.742644
aF-18.765631
aa(lp2144
F19.889558
aF-16.068083
aa(lp2145
F8.796844
aF-16.466116
aa(lp2146
F8.275694
aF-15.462866
aa(lp2147
F22.486685
aF-14.690522
aa(lp2148
F18.418893
aF-16.844289
aa(lp2149
F14.027475
aF-19.121599
aa(lp2150
F2.16014
aF-4.074249
aa(lp2151
F4.503475
aF-8.468545
aa(lp2152
F2.27874
aF-4.304159
aa(lp2153
F9.749831
aF-18.297894
aa(lp2154
F2.410425
aF-4.542427
aa(lp2155
F6.545166
aF-12.225865
aa(lp2156
F20.106895
aF-15.957886
aa(lp2157
F3.266623
aF-6.159278
aa(lp2158
F8.96925
aF-16.803088
aa(lp2159
F11.171497
aF-20.468011
aa(lp2160
F7.714701
aF-14.398816
aa(lp2161
F23.091583
aF-14.358856
aa(lp2162
F25.436759
aF-13.121394
aa(lp2163
F6.774167
aF-12.638887
aa(lp2164
F8.072771
aF-15.050877
aa(lp2165
F7.949892
aF-14.831496
aa(lp2166
F11.114417
aF-20.469622
aa(lp2167
F24.676925
aF-13.517457
aa(lp2168
F9.588407
aF-17.979237
aa(lp2169
F2.833873
aF-5.36271
aa(lp2170
F10.546164
aF-19.91967
aa(lp2171
F25.85792
aF-12.893596
aa(lp2172
F6.454597
aF-12.072812
aa(lp2173
F10.388687
aF-19.519694
aa(lp2174
F9.275795
aF-17.375145
aa(lp2175
F5.064021
aF-9.477423
aa(lp2176
F1.351369
aF-2.548839
aa(lp2177
F21.592325
aF-15.169078
aa(lp2178
F19.383206
aF-16.321981
aa(lp2179
F10.000313
aF-18.750091
aa(lp2180
F5.969739
aF-11.158717
aa(lp2181
F4.062122
aF-7.677614
aa(lp2182
F7.487267
aF-13.966551
aa(lp2183
F8.951643
aF-16.772385
aa(lp2184
F1.616725
aF-3.040349
aa(lp2185
F12.442909
aF-19.945281
aa(lp2186
F3.796484
aF-7.169737
aa(lp2187
F19.30915
aF-16.379594
aa(lp2188
F20.891243
aF-15.53649
aa(lp2189
F26.970575
aF-12.300982
aa(lp2190
F5.83253
aF-10.89596
aa(lp2191
F24.251575
aF-13.742581
aa(lp2192
F23.272868
aF-14.261261
aa(lp2193
F2.835463
aF-5.358354
aa(lp2194
F14.726661
aF-18.77112
aa(lp2195
F6.052117
aF-11.299815
aa(lp2196
F12.004757
aF-20.213031
aa(lp2197
F19.068258
aF-16.501978
aa(lp2198
F5.609555
aF-10.495858
aa(lp2199
F3.711645
aF-7.012516
aa(lp2200
F6.871219
aF-12.829406
aa(lp2201
F4.022955
aF-7.558083
aa(lp2202
F11.844558
aF-20.290438
aa(lp2203
F8.695405
aF-16.253749
aa(lp2204
F11.292662
aF-20.472513
aa(lp2205
F5.521601
aF-10.339098
aa(lp2206
F2.064355
aF-3.892643
aa(lp2207
F12.960246
aF-19.670911
aa(lp2208
F24.946617
aF-13.371059
aa(lp2209
F15.20391
aF-18.532034
aa(lp2210
F8.480082
aF-15.867399
aa(lp2211
F8.020771
aF-14.971693
aa(lp2212
F24.504108
aF-13.601405
aa(lp2213
F10.361453
aF-19.442505
aa(lp2214
F27.206578
aF-12.179315
aa(lp2215
F23.517349
aF-14.139603
aa(lp2216
F5.756162
aF-10.773069
aa(lp2217
F9.218803
aF-17.269579
aa(lp2218
F27.209145
aF-12.16984
aa(lp2219
F24.031445
aF-13.873661
aa(lp2220
F1.045165
aF-1.956357
aa(lp2221
F6.237786
aF-11.666357
aa(lp2222
F16.520263
aF-17.85844
aa(lp2223
F19.765106
aF-16.135042
aa(lp2224
F1.004459
aF-1.871925
aa(lp2225
F22.738512
aF-14.565666
aa(lp2226
F11.083221
aF-20.446599
aa(lp2227
F19.077759
aF-16.493015
aa(lp2228
F7.743263
aF-14.448519
aa(lp2229
F26.345712
aF-12.637164
aa(lp2230
F20.712234
aF-15.618924
aa(lp2231
F7.674672
aF-14.304178
aa(lp2232
F6.964776
aF-13.001136
aa(lp2233
F15.765664
aF-18.243761
aa(lp2234
F2.396768
aF-4.530528
aa(lp2235
F3.866577
aF-7.312487
aa(lp2236
F2.63865
aF-4.988519
aa(lp2237
F2.131581
aF-4.05127
aa(lp2238
F3.100043
aF-5.846854
aa(lp2239
F6.397488
aF-11.928853
aa(lp2240
F18.437033
aF-16.840769
aa(lp2241
F23.814446
aF-13.985658
aa(lp2242
F20.782049
aF-15.596167
aa(lp2243
F17.059977
aF-17.574362
aa(lp2244
F9.878696
aF-18.521774
aa(lp2245
F2.610556
aF-4.9151
aa(lp2246
F16.126493
aF-18.053894
aa(lp2247
F10.566683
aF-19.901439
aa(lp2248
F22.055964
aF-14.91168
aa(lp2249
F1.495148
aF-2.81265
aa(lp2250
F4.963926
aF-9.30637
aa(lp2251
F7.962867
aF-14.881374
aa(lp2252
F17.387975
aF-17.404292
aa(lp2253
F14.329895
aF-18.983437
aa(lp2254
F17.984362
aF-17.082773
aa(lp2255
F25.878633
aF-12.880905
aa(lp2256
F23.123905
aF-14.35708
aa(lp2257
F7.023371
aF-13.121195
aa(lp2258
F9.171412
aF-17.192543
aa(lp2259
F5.553849
aF-10.394786
aa(lp2260
F6.035535
aF-11.28326
aa(lp2261
F18.529496
aF-16.782086
aa(lp2262
F12.237735
aF-20.079446
aa(lp2263
F21.680447
aF-15.11465
aa(lp2264
F6.023777
aF-11.249452
aa(lp2265
F18.077003
aF-17.033056
aa(lp2266
F27.315742
aF-12.112612
aa(lp2267
F9.421001
aF-17.65708
aa(lp2268
F25.002426
aF-13.342434
aa(lp2269
F26.520789
aF-12.544917
aa(lp2270
F2.994515
aF-5.648284
aa(lp2271
F7.999133
aF-14.945362
aa(lp2272
F14.070214
aF-19.113545
aa(lp2273
F4.815926
aF-9.039288
aa(lp2274
F17.074342
aF-17.574117
aa(lp2275
F22.246615
aF-14.825744
aa(lp2276
F2.124047
aF-4.004875
aa(lp2277
F5.303548
aF-9.941222
aa(lp2278
F20.886653
aF-15.529415
aa(lp2279
F19.349939
aF-16.359756
aa(lp2280
F9.692293
aF-18.142265
aa(lp2281
F2.115649
aF-3.992966
aa(lp2282
F13.500449
aF-19.39349
aa(lp2283
F17.567641
aF-17.314698
aa(lp2284
F3.342884
aF-6.297126
aa(lp2285
F2.600591
aF-4.895222
aa(lp2286
F5.309499
aF-9.989219
aa(lp2287
F22.576282
aF-14.642251
aa(lp2288
F25.662316
aF-12.995392
aa(lp2289
F12.364444
aF-19.963061
aa(lp2290
F3.087415
aF-5.834035
aa(lp2291
F13.832314
aF-19.233986
aa(lp2292
F27.021544
aF-12.276815
aa(lp2293
F1.33687
aF-2.524167
aa(lp2294
F18.975182
aF-16.55695
aa(lp2295
F3.125031
aF-5.891361
aa(lp2296
F21.262722
aF-15.357227
aa(lp2297
F14.055236
aF-19.117308
aa(lp2298
F14.096
aF-19.099713
aa(lp2299
F18.620608
aF-16.738679
aa(lp2300
F19.439324
aF-16.306594
aa(lp2301
F27.241991
aF-12.145929
aa(lp2302
F10.139893
aF-19.010561
aa(lp2303
F2.132168
aF-4.014265
aa(lp2304
F13.059649
aF-19.654527
aa(lp2305
F10.226026
aF-19.196901
aa(lp2306
F15.906311
aF-18.166072
aa(lp2307
F25.439476
aF-13.124547
aa(lp2308
F5.377731
aF-10.094402
aa(lp2309
F19.399084
aF-16.328615
aa(lp2310
F19.020189
aF-16.532115
aa(lp2311
F26.573656
aF-12.515713
aa(lp2312
F4.781298
aF-8.905625
aa(lp2313
F13.911462
aF-19.207289
aa(lp2314
F4.568874
aF-8.587936
aa(lp2315
F6.782739
aF-12.665608
aa(lp2316
F9.628386
aF-18.061099
aa(lp2317
F12.221472
aF-20.049915
aa(lp2318
F17.096165
aF-17.563483
aa(lp2319
F3.218284
aF-6.077276
aa(lp2320
F8.689027
aF-16.261234
aa(lp2321
F18.869321
aF-16.612074
aa(lp2322
F24.980425
aF-13.355756
aa(lp2323
F9.893146
aF-18.56077
aa(lp2324
F20.444116
aF-15.777156
aa(lp2325
F5.489933
aF-10.275448
aa(lp2326
F6.505963
aF-12.165329
aa(lp2327
F2.912457
aF-5.477167
aa(lp2328
F11.3998
aF-20.462622
aa(lp2329
F15.092607
aF-18.581194
aa(lp2330
F4.99205
aF-9.3591
aa(lp2331
F5.878501
aF-10.994633
aa(lp2332
F8.518905
aF-15.935225
aa(lp2333
F27.405228
aF-12.070131
aa(lp2334
F3.73924
aF-7.064242
aa(lp2335
F26.32013
aF-12.64478
aa(lp2336
F9.495476
aF-17.794891
aa(lp2337
F5.631967
aF-10.546595
aa(lp2338
F16.363006
aF-17.946083
aa(lp2339
F10.723998
aF-20.126524
aasS'val_y'
p2340
(lp2341
(lp2342
F2.86885
aF-5.410308
aa(lp2343
F11.411174
aF-20.465408
aa(lp2344
F2.581804
aF-4.864372
aa(lp2345
F8.725518
aF-16.338421
aa(lp2346
F21.177347
aF-15.386288
aa(lp2347
F13.264925
aF-19.520267
aa(lp2348
F16.631466
aF-17.800283
aa(lp2349
F13.154166
aF-19.576951
aa(lp2350
F6.761463
aF-12.616633
aa(lp2351
F17.165348
aF-17.52216
aa(lp2352
F1.413533
aF-2.65854
aa(lp2353
F4.54911
aF-8.54825
aa(lp2354
F22.967036
aF-14.429003
aa(lp2355
F7.300266
aF-13.623044
aa(lp2356
F12.272853
aF-20.049416
aa(lp2357
F12.666333
aF-19.838762
aa(lp2358
F1.098553
aF-2.049803
aa(lp2359
F8.150064
aF-15.219854
aa(lp2360
F15.892395
aF-18.182819
aa(lp2361
F10.784313
aF-20.276836
aa(lp2362
F15.257513
aF-18.502171
aa(lp2363
F18.056176
aF-17.050459
aa(lp2364
F8.717577
aF-16.30074
aa(lp2365
F3.800497
aF-7.182298
aa(lp2366
F9.660163
aF-18.106654
aa(lp2367
F16.14496
aF-18.052182
aa(lp2368
F16.817757
aF-17.70698
aa(lp2369
F20.277855
aF-15.858501
aa(lp2370
F6.099132
aF-11.404047
aa(lp2371
F18.388574
aF-16.872872
aa(lp2372
F7.548906
aF-14.072371
aa(lp2373
F10.396124
aF-19.478328
aa(lp2374
F23.441791
aF-14.179329
aa(lp2375
F16.986542
aF-17.612776
aa(lp2376
F20.804676
aF-15.579629
aa(lp2377
F25.827291
aF-12.902209
aa(lp2378
F14.395747
aF-18.933327
aa(lp2379
F10.564219
aF-19.977068
aa(lp2380
F2.353738
aF-4.442922
aa(lp2381
F1.611387
aF-3.01121
aa(lp2382
F17.121334
aF-17.539739
aa(lp2383
F18.936979
aF-16.571133
aa(lp2384
F23.565923
aF-14.09643
aa(lp2385
F14.290372
aF-18.996343
aa(lp2386
F13.133883
aF-19.596098
aa(lp2387
F7.269975
aF-13.560672
aa(lp2388
F8.02573
aF-14.967048
aa(lp2389
F18.301529
aF-16.909547
aa(lp2390
F7.347596
aF-13.685308
aa(lp2391
F2.674175
aF-5.041856
aa(lp2392
F4.346696
aF-8.204101
aa(lp2393
F23.943109
aF-13.906886
aa(lp2394
F17.599265
aF-17.291076
aa(lp2395
F6.338782
aF-11.848244
aa(lp2396
F23.916376
aF-13.918086
aa(lp2397
F5.518514
aF-10.35855
aa(lp2398
F24.047473
aF-13.867232
aa(lp2399
F7.104536
aF-13.239234
aa(lp2400
F5.260316
aF-9.876183
aa(lp2401
F18.56671
aF-16.760203
aa(lp2402
F8.249613
aF-15.405403
aa(lp2403
F4.052694
aF-7.628403
aa(lp2404
F6.01184
aF-11.233546
aa(lp2405
F11.440227
aF-20.444956
aa(lp2406
F10.380082
aF-19.495329
aa(lp2407
F23.376569
aF-14.225517
aa(lp2408
F4.552663
aF-8.566405
aa(lp2409
F6.807122
aF-12.709369
aa(lp2410
F8.645016
aF-16.162572
aa(lp2411
F12.66669
aF-19.82207
aa(lp2412
F8.908604
aF-16.671404
aa(lp2413
F5.20359
aF-9.796863
aa(lp2414
F23.976278
aF-13.902401
aa(lp2415
F3.761884
aF-7.108669
aa(lp2416
F3.997928
aF-7.535042
aa(lp2417
F18.873113
aF-16.592067
aa(lp2418
F4.789815
aF-9.01451
aa(lp2419
F14.521044
aF-18.877613
aa(lp2420
F1.625964
aF-3.053388
aa(lp2421
F1.921609
aF-3.630642
aa(lp2422
F6.527693
aF-12.215125
aa(lp2423
F25.149605
aF-13.274545
aa(lp2424
F5.080211
aF-9.533326
aa(lp2425
F14.564301
aF-18.876454
aa(lp2426
F3.584537
aF-6.758954
aa(lp2427
F7.529276
aF-14.029827
aa(lp2428
F20.776815
aF-15.599002
aa(lp2429
F11.990759
aF-20.210697
aa(lp2430
F8.547882
aF-15.971184
aa(lp2431
F5.435804
aF-10.199896
aa(lp2432
F3.613252
aF-6.839364
aa(lp2433
F2.623646
aF-4.947528
aa(lp2434
F3.567256
aF-6.751679
aa(lp2435
F2.786567
aF-5.217594
aa(lp2436
F15.192502
aF-18.547084
aa(lp2437
F6.453372
aF-12.069201
aa(lp2438
F8.436766
aF-15.783508
aa(lp2439
F3.656836
aF-6.906707
aa(lp2440
F9.276072
aF-17.372779
aa(lp2441
F24.279896
aF-13.734185
aa(lp2442
F3.983434
aF-7.517112
aa(lp2443
F18.888218
aF-16.594637
aa(lp2444
F10.773217
aF-20.281581
aa(lp2445
F2.489543
aF-4.711648
aa(lp2446
F22.181088
aF-14.853316
aa(lp2447
F6.465743
aF-12.068428
aa(lp2448
F15.451452
aF-18.413048
aa(lp2449
F6.282051
aF-11.738145
aa(lp2450
F16.680999
aF-17.776228
aa(lp2451
F21.81327
aF-15.037324
aa(lp2452
F12.813139
aF-19.763896
aa(lp2453
F3.242172
aF-6.137523
aa(lp2454
F15.543294
aF-18.353586
aa(lp2455
F10.551852
aF-19.916062
aa(lp2456
F12.899449
aF-19.707405
aa(lp2457
F21.103969
aF-15.431135
aa(lp2458
F11.138826
aF-20.481405
aa(lp2459
F20.714722
aF-15.637476
aa(lp2460
F25.700356
aF-12.977578
aa(lp2461
F5.360169
aF-10.040607
aa(lp2462
F10.117423
aF-18.991714
aa(lp2463
F2.131626
aF-4.005084
aa(lp2464
F9.168861
aF-17.169387
aa(lp2465
F7.123496
aF-13.284748
aa(lp2466
F3.574819
aF-6.751833
aa(lp2467
F12.90521
aF-19.697825
aa(lp2468
F13.730023
aF-19.286442
aa(lp2469
F5.715412
aF-10.697376
aa(lp2470
F5.978797
aF-11.171531
aa(lp2471
F1.64506
aF-3.066212
aa(lp2472
F11.806175
aF-20.276743
aa(lp2473
F1.133667
aF-2.180601
aa(lp2474
F25.434725
aF-13.115858
aa(lp2475
F7.290979
aF-13.630303
aa(lp2476
F5.105427
aF-9.586134
aa(lp2477
F24.810768
aF-13.458098
aa(lp2478
F6.82881
aF-12.750334
aa(lp2479
F17.158109
aF-17.52217
aa(lp2480
F0.977631
aF-1.833775
aa(lp2481
F3.563638
aF-6.745378
aa(lp2482
F8.989084
aF-16.824811
aa(lp2483
F1.362165
aF-2.570895
aa(lp2484
F15.34073
aF-18.454999
aa(lp2485
F1.618669
aF-3.068277
aa(lp2486
F8.780985
aF-16.427607
aa(lp2487
F3.158615
aF-5.951858
aa(lp2488
F27.079406
aF-12.234303
aa(lp2489
F20.733353
aF-15.618869
aa(lp2490
F21.63971
aF-15.142766
aa(lp2491
F24.713408
aF-13.514742
aa(lp2492
F4.278512
aF-8.067042
aa(lp2493
F8.774418
aF-16.447153
aa(lp2494
F11.425309
aF-20.457587
aa(lp2495
F9.033357
aF-16.870158
aa(lp2496
F8.242517
aF-15.393215
aa(lp2497
F26.058855
aF-12.789574
aa(lp2498
F22.695525
aF-14.580299
aa(lp2499
F16.361988
aF-17.935318
aa(lp2500
F26.597283
aF-12.498252
aa(lp2501
F1.55904
aF-2.950788
aa(lp2502
F17.982296
aF-17.078912
aa(lp2503
F21.262101
aF-15.356455
aasS'val_x'
p2504
(lp2505
(lp2506
F-0.397357
aF-1.319605
aF-1.323375
aF0.656251
aF1.225214
aF0.065175
aF-1.150933
aF-1.17428
aF0.631744
aF0.535184
aa(lp2507
F2.077857
aF0.256744
aF0.461352
aF0.277392
aF-0.626084
aF1.196267
aF1.313902
aF0.256089
aF0.153392
aF-0.360453
aa(lp2508
F-0.67238
aF-0.925518
aF-0.96643
aF1.161396
aF1.404372
aF0.159432
aF-0.939661
aF-1.117065
aF1.528653
aF0.535184
aa(lp2509
F-0.214007
aF-0.475132
aF-0.074066
aF1.098253
aF0.209986
aF-0.217599
aF0.116696
aF-0.716562
aF0.512156
aF0.190708
aa(lp2510
F-0.122333
aF1.439006
aF1.05626
aF-0.922329
aF-1.402435
aF-0.029083
aF0.609663
aF0.599377
aF-1.401251
aF-1.462774
aa(lp2511
F2.169532
aF0.98862
aF0.34237
aF-0.7329
aF-0.566365
aF1.196267
aF1.313902
aF0.313304
aF-1.042487
aF-0.842718
aa(lp2512
F1.252786
aF0.200446
aF1.234733
aF-0.985472
aF-0.745523
aF-0.59463
aF1.595597
aF0.427733
aF-1.341457
aF-0.911613
aa(lp2513
F2.169532
aF0.481937
aF0.996769
aF0.214248
aF-0.208049
aF0.724979
aF0.609663
aF0.484948
aF-0.265166
aF0.328499
aa(lp2514
F-0.947404
aF-1.319605
aF-1.620829
aF1.603399
aF1.046056
aF0.536463
aF-0.869237
aF-1.002635
aF0.631744
aF1.43082
aa(lp2515
F-0.122333
aF0.425639
aF1.353715
aF-1.238045
aF-1.282997
aF-1.442949
aF1.736445
aF0.313304
aF-1.341457
aF-0.980509
aa(lp2516
F-2.139173
aF-0.812921
aF-1.025921
aF0.782537
aF0.926617
aF-0.029083
aF-0.869237
aF-1.288709
aF0.990508
aF0.604079
aa(lp2517
F-0.67238
aF-1.544798
aF-0.847448
aF1.350826
aF1.404372
aF0.159432
aF-1.6439
aF-1.345924
aF1.528653
aF0.879659
aa(lp2518
F-0.947404
aF1.6079
aF0.877788
aF-0.922329
aF-1.282997
aF-0.59463
aF0.046273
aF1.285954
aF-1.221869
aF-1.66946
aa(lp2519
F-0.580706
aF-1.375903
aF-0.490503
aF0.782537
aF0.74746
aF1.196267
aF-0.939661
aF-0.773776
aF0.811126
aF1.361925
aa(lp2520
F1.619484
aF0.36934
aF0.758806
aF-0.101468
aF-0.028891
aF1.007752
aF1.10263
aF-0.373273
aF-0.02599
aF-0.291557
aa(lp2521
F2.077857
aF-0.418834
aF0.401861
aF0.340535
aF-0.208049
aF1.573298
aF0.53924
aF0.427733
aF-0.324959
aF0.259603
aa(lp2522
F-1.955824
aF-1.432201
aF-1.085412
aF0.656251
aF0.329424
aF-0.406114
aF-2.136867
aF-1.117065
aF1.528653
aF0.328499
aa(lp2523
F-0.580706
aF-0.812921
aF-1.382866
aF1.287683
aF1.284933
aF1.761814
aF-0.587542
aF-1.002635
aF0.631744
aF1.775296
aa(lp2524
F1.34446
aF0.932322
aF1.115751
aF-1.048616
aF-1.282997
aF0.065175
aF1.595597
aF0.599377
aF-0.564135
aF-0.429348
aa(lp2525
F2.352881
aF0.313042
aF0.223388
aF0.340535
aF0.389144
aF0.819237
aF0.53924
aF-0.258844
aF0.87092
aF0.741869
aa(lp2526
F1.619484
aF0.538235
aF0.758806
aF-0.417184
aF-0.9844
aF-0.217599
aF1.45475
aF0.542163
aF-0.504341
aF-0.153767
aa(lp2527
F0.152691
aF0.98862
aF0.877788
aF-1.174902
aF-1.103839
aF-0.688887
aF1.313902
aF0.942666
aF-1.221869
aF-1.462774
aa(lp2528
F-0.489031
aF-0.981816
aF-0.490503
aF0.782537
aF-0.14833
aF0.25369
aF-0.024151
aF-0.544917
aF0.512156
aF-0.084872
aa(lp2529
F-2.322523
aF-1.375903
aF-0.906939
aF1.540256
aF1.523811
aF-0.029083
aF-0.869237
aF-1.231494
aF0.990508
aF0.741869
aa(lp2530
F1.069437
aF-0.306238
aF-0.490503
aF0.529964
aF0.68774
aF1.761814
aF0.18712
aF-0.487703
aF-0.085784
aF0.879659
aa(lp2531
F1.436135
aF0.481937
aF1.05626
aF-0.669756
aF-0.924681
aF-0.59463
aF1.243478
aF0.771022
aF-0.683723
aF-0.773823
aa(lp2532
F1.252786
aF0.256744
aF1.05626
aF-1.301188
aF-0.924681
aF-0.783145
aF1.666021
aF0.599377
aF-1.162075
aF-1.118299
aa(lp2533
F0.061016
aF1.101217
aF1.353715
aF-1.174902
aF-1.402435
aF-0.311856
aF0.398392
aF0.542163
aF-1.341457
aF-0.980509
aa(lp2534
F-0.397357
aF-0.700325
aF-0.847448
aF1.22454
aF0.628021
aF0.724979
aF-0.869237
aF-1.17428
aF0.930714
aF1.224135
aa(lp2535
F-0.489031
aF0.819726
aF1.770151
aF-1.111759
aF-1.282997
aF-0.783145
aF1.45475
aF0.656592
aF-1.341457
aF-1.738355
aa(lp2536
F-0.947404
aF-0.587729
aF-0.906939
aF1.413969
aF1.165495
aF0.913494
aF-0.446694
aF-0.945421
aF0.631744
aF0.879659
aa(lp2537
F1.619484
aF0.707129
aF0.401861
aF0.277392
aF0.269705
aF1.761814
aF0.680087
aF0.599377
aF-0.564135
aF0.810764
aa(lp2538
F-1.039079
aF1.833093
aF0.461352
aF-0.859186
aF-0.924681
aF-0.783145
aF0.468816
aF1.285954
aF-1.102281
aF-1.393879
aa(lp2539
F-0.030658
aF0.313042
aF1.413206
aF-1.111759
aF-1.342716
aF-0.406114
aF1.736445
aF0.656592
aF-1.162075
aF-1.118299
aa(lp2540
F-0.764055
aF1.382708
aF1.532187
aF-1.174902
aF-0.9844
aF-0.688887
aF1.384326
aF1.285954
aF-1.341457
aF-0.980509
aa(lp2541
F-0.122333
aF0.932322
aF0.818297
aF-1.364332
aF-1.402435
aF-1.065918
aF0.116696
aF2.20139
aF-1.281663
aF-1.600565
aa(lp2542
F1.619484
aF-0.53143
aF0.996769
aF-0.922329
aF-0.864962
aF-0.406114
aF1.595597
aF0.656592
aF-0.743517
aF-0.704928
aa(lp2543
F0.33604
aF0.481937
aF0.520842
aF0.151105
aF0.389144
aF1.573298
aF1.10263
aF0.484948
aF0.57195
aF0.328499
aa(lp2544
F-0.855729
aF-0.812921
aF-1.620829
aF-0.227754
aF0.389144
aF-0.783145
aF-0.939661
aF-1.231494
aF1.289477
aF0.672974
aa(lp2545
F-1.589126
aF-1.319605
aF-1.442357
aF0.593108
aF0.986337
aF-0.783145
aF-1.150933
aF-1.231494
aF1.409065
aF-0.222662
aa(lp2546
F0.977762
aF1.044918
aF1.175242
aF-0.417184
aF-0.924681
aF-0.688887
aF1.595597
aF-0.029985
aF-0.982693
aF-0.842718
aa(lp2547
F-0.030658
aF1.157515
aF1.532187
aF-0.922329
aF-1.402435
aF-0.783145
aF0.680087
aF0.942666
aF-1.102281
aF-1.118299
aa(lp2548
F-0.305682
aF1.551602
aF0.520842
aF-1.743191
aF-1.04412
aF-1.065918
aF0.18712
aF0.656592
aF-1.281663
aF-1.118299
aa(lp2549
F2.352881
aF0.932322
aF1.115751
aF-0.164611
aF-0.745523
aF0.630721
aF1.313902
aF0.198874
aF-0.324959
aF-0.084872
aa(lp2550
F1.711159
aF0.538235
aF0.520842
aF-0.417184
aF-0.208049
aF0.442206
aF0.116696
aF0.713807
aF-0.324959
aF0.121813
aa(lp2551
F-0.030658
aF-0.925518
aF-0.549994
aF1.22454
aF0.986337
aF0.347948
aF-0.869237
aF-0.888206
aF0.57195
aF1.637506
aa(lp2552
F0.33604
aF-0.756623
aF-0.431012
aF0.593108
aF0.508582
aF1.761814
aF-0.798814
aF-0.430488
aF0.392568
aF1.706401
aa(lp2553
F0.061016
aF0.594533
aF1.829642
aF-0.985472
aF-1.402435
aF-1.348691
aF1.313902
aF0.599377
aF-0.982693
aF-1.049404
aa(lp2554
F-0.030658
aF-1.094412
aF-0.371521
aF1.413969
aF1.046056
aF-0.500372
aF-0.587542
aF-1.403138
aF0.811126
aF1.224135
aa(lp2555
F-0.764055
aF-1.488499
aF-1.085412
aF0.719394
aF0.508582
aF-1.160176
aF-0.869237
aF-1.345924
aF1.289477
aF0.741869
aa(lp2556
F-0.855729
aF-1.15071
aF-0.96643
aF1.540256
aF0.150267
aF-1.254434
aF-1.503052
aF-1.117065
aF1.409065
aF0.466289
aa(lp2557
F-0.67238
aF1.776795
aF0.461352
aF-1.301188
aF-1.402435
aF-0.59463
aF-0.305847
aF1.285954
aF-1.162075
aF-1.049404
aa(lp2558
F0.244365
aF0.932322
aF1.472697
aF-0.922329
aF-1.163558
aF-0.783145
aF1.525173
aF0.542163
aF-1.162075
aF-0.980509
aa(lp2559
F0.061016
aF-0.812921
aF-0.31203
aF1.03511
aF0.926617
aF0.630721
aF-1.221357
aF-0.773776
aF0.332774
aF1.568611
aa(lp2560
F-1.405777
aF1.833093
aF0.461352
aF-1.238045
aF-1.282997
aF-0.500372
aF0.468816
aF1.343169
aF-1.341457
aF-1.049404
aa(lp2561
F-0.489031
aF-1.375903
aF-0.847448
aF0.403678
aF0.986337
aF0.630721
aF-1.010085
aF-1.05985
aF0.691538
aF-0.291557
aa(lp2562
F-0.305682
aF1.382708
aF-0.014576
aF-1.616904
aF-0.566365
aF-0.688887
aF0.257544
aF1.400384
aF-1.281663
aF-1.049404
aa(lp2563
F-0.305682
aF-0.644027
aF-0.787957
aF1.540256
aF0.68774
aF0.630721
aF-0.587542
aF-0.830991
aF1.050302
aF0.259603
aa(lp2564
F-0.855729
aF-0.869219
aF-1.501848
aF1.477112
aF1.404372
aF-0.59463
aF-0.869237
aF-0.716562
aF0.631744
aF1.01745
aa(lp2565
F0.061016
aF0.538235
aF1.889133
aF-1.048616
aF-1.223277
aF-0.59463
aF1.45475
aF0.599377
aF-1.162075
aF-1.94504
aa(lp2566
F0.427715
aF-0.700325
aF-0.074066
aF0.214248
aF0.866898
aF1.573298
aF-1.573476
aF-0.373273
aF1.050302
aF1.637506
aa(lp2567
F-2.322523
aF-1.15071
aF-1.204393
aF1.540256
aF1.225214
aF0.347948
aF-0.939661
aF-1.231494
aF1.827623
aF0.259603
aa(lp2568
F-0.030658
aF-1.375903
aF-0.847448
aF0.84568
aF0.628021
aF0.724979
aF-0.587542
aF-0.945421
aF0.57195
aF0.810764
aa(lp2569
F1.527809
aF0.256744
aF0.758806
aF0.087962
aF0.030828
aF1.10201
aF1.243478
aF0.141659
aF-0.085784
aF-1.049404
aa(lp2570
F1.986182
aF0.36934
aF0.520842
aF0.529964
aF-0.088611
aF1.573298
aF0.53924
aF0.427733
aF0.27298
aF0.328499
aa(lp2571
F-0.305682
aF1.495304
aF0.639824
aF-1.616904
aF-0.864962
aF-1.254434
aF0.53924
aF1.285954
aF-1.221869
aF-1.118299
aa(lp2572
F-0.764055
aF-1.15071
aF-0.96643
aF0.782537
aF1.523811
aF0.159432
aF-1.150933
aF-0.773776
aF1.050302
aF0.466289
aa(lp2573
F-0.67238
aF-0.812921
aF-0.96643
aF1.287683
aF0.926617
aF0.724979
aF-0.869237
aF-0.716562
aF1.409065
aF1.29303
aa(lp2574
F-0.489031
aF-0.925518
aF-0.371521
aF0.466821
aF0.807179
aF1.950329
aF-0.657966
aF-0.487703
aF0.930714
aF1.29303
aa(lp2575
F2.352881
aF0.538235
aF0.996769
aF-0.417184
aF-0.446927
aF0.159432
aF0.891359
aF0.141659
aF-0.564135
aF0.259603
aa(lp2576
F1.069437
aF0.031551
aF-0.847448
aF0.403678
aF0.568302
aF0.630721
aF-0.024151
aF-0.602132
aF-0.444547
aF1.568611
aa(lp2577
F-0.489031
aF-1.488499
aF-0.906939
aF1.287683
aF1.046056
aF-0.123341
aF-1.080509
aF-1.117065
aF0.930714
aF0.397394
aa(lp2578
F-0.305682
aF1.382708
aF0.639824
aF-0.922329
aF-1.342716
aF-1.254434
aF-0.235423
aF1.629243
aF-1.102281
aF-1.187194
aa(lp2579
F-1.130753
aF-0.981816
aF-0.847448
aF1.477112
aF1.643249
aF-0.029083
aF-1.010085
aF-0.888206
aF1.528653
aF0.259603
aa(lp2580
F-0.855729
aF-1.094412
aF-1.204393
aF1.477112
aF1.58353
aF0.065175
aF-1.080509
aF-0.773776
aF0.631744
aF0.535184
aa(lp2581
F0.519389
aF1.157515
aF1.234733
aF-1.048616
aF-1.402435
aF-1.725722
aF1.595597
aF0.942666
aF-1.102281
aF-0.980509
aa(lp2582
F-2.047499
aF-1.094412
aF-1.739811
aF0.782537
aF1.344653
aF0.630721
aF-1.855171
aF-0.830991
aF0.990508
aF0.466289
aa(lp2583
F1.527809
aF0.594533
aF1.115751
aF-0.35404
aF-0.446927
aF0.159432
aF0.750511
aF0.313304
aF-0.02599
aF-0.015977
aa(lp2584
F-1.039079
aF-1.15071
aF-1.561339
aF1.161396
aF1.284933
aF-0.029083
aF-1.080509
aF-1.17428
aF0.57195
aF0.672974
aa(lp2585
F-1.314102
aF-1.038114
aF-1.620829
aF0.214248
aF0.508582
aF-0.029083
aF-1.010085
aF-1.345924
aF0.57195
aF0.397394
aa(lp2586
F-0.397357
aF-1.038114
aF-1.085412
aF1.098253
aF1.344653
aF0.630721
aF-0.305847
aF-1.117065
aF1.349271
aF1.43082
aa(lp2587
F0.061016
aF1.382708
aF0.401861
aF-1.238045
aF-1.342716
aF-0.783145
aF0.257544
aF2.029746
aF-0.803311
aF-0.773823
aa(lp2588
F-0.67238
aF-0.925518
aF-1.263884
aF1.098253
aF1.404372
aF-0.217599
aF-1.362204
aF-0.830991
aF0.751332
aF0.741869
aa(lp2589
F1.711159
aF0.538235
aF0.639824
aF-1.048616
aF-0.566365
aF-0.688887
aF1.313902
aF0.771022
aF-0.564135
aF-0.842718
aa(lp2590
F-0.855729
aF-1.15071
aF-1.739811
aF1.287683
aF0.68774
aF0.724979
aF-1.573476
aF-1.002635
aF1.050302
aF0.259603
aa(lp2591
F0.33604
aF-0.869219
aF-0.787957
aF0.656251
aF1.225214
aF1.479041
aF-0.587542
aF-0.602132
aF0.512156
aF1.086345
aa(lp2592
F0.152691
aF0.98862
aF1.353715
aF-1.301188
aF-0.9844
aF-1.160176
aF0.257544
aF1.228739
aF-1.221869
aF-1.256089
aa(lp2593
F1.436135
aF0.763428
aF-0.074066
aF-0.038324
aF-0.327488
aF1.479041
aF0.257544
aF0.542163
aF0.153392
aF-0.429348
aa(lp2594
F0.33604
aF-0.475132
aF-0.549994
aF0.529964
aF1.046056
aF1.573298
aF-1.291781
aF-0.602132
aF1.050302
aF1.706401
aa(lp2595
F-0.397357
aF-1.038114
aF-0.96643
aF0.971967
aF1.225214
aF0.536463
aF-1.503052
aF-0.659347
aF0.87092
aF1.224135
aa(lp2596
F-0.855729
aF-0.925518
aF-1.501848
aF0.593108
aF0.389144
aF0.159432
aF-1.291781
aF-1.345924
aF1.648241
aF0.397394
aa(lp2597
F-0.397357
aF-1.094412
aF-1.68032
aF0.656251
aF1.105775
aF0.724979
aF-0.939661
aF-0.830991
aF0.033804
aF0.672974
aa(lp2598
F-0.67238
aF-0.587729
aF-1.025921
aF1.287683
aF0.926617
aF-0.217599
aF-1.573476
aF-1.002635
aF1.110095
aF0.397394
aa(lp2599
F-0.855729
aF-0.644027
aF-1.144902
aF0.593108
aF0.926617
aF-0.500372
aF-0.72839
aF-1.288709
aF0.87092
aF0.879659
aa(lp2600
F1.436135
aF0.763428
aF1.05626
aF-0.669756
aF-0.685804
aF0.159432
aF1.595597
aF0.427733
aF-0.803311
aF-0.980509
aa(lp2601
F-0.030658
aF-0.925518
aF-0.787957
aF1.287683
aF1.284933
aF0.630721
aF-0.305847
aF-0.659347
aF1.409065
aF1.01745
aa(lp2602
F0.611064
aF-0.475132
aF-0.133557
aF0.84568
aF0.807179
aF1.761814
aF-1.150933
aF-0.373273
aF0.57195
aF1.086345
aa(lp2603
F-0.67238
aF-0.925518
aF-1.620829
aF1.22454
aF0.807179
aF-0.59463
aF-1.221357
aF-1.231494
aF0.990508
aF0.466289
aa(lp2604
F0.061016
aF-0.475132
aF-0.431012
aF1.161396
aF0.74746
aF1.196267
aF-1.150933
aF-0.0872
aF0.631744
aF1.43082
aa(lp2605
F-0.030658
aF1.270111
aF0.34237
aF-0.985472
aF-0.864962
aF-1.160176
aF0.18712
aF1.514813
aF-1.162075
aF-1.049404
aa(lp2606
F-1.314102
aF-0.756623
aF-0.906939
aF1.350826
aF1.225214
aF0.25369
aF-1.010085
aF-0.716562
aF1.468859
aF0.672974
aa(lp2607
F0.152691
aF1.157515
aF1.175242
aF-1.048616
aF-1.521874
aF-2.008496
aF1.595597
aF0.885451
aF-1.221869
aF-1.256089
aa(lp2608
F2.077857
aF0.200446
aF-0.31203
aF-0.35404
aF0.150267
aF1.479041
aF0.468816
aF-0.659347
aF0.691538
aF0.466289
aa(lp2609
F-1.130753
aF-1.094412
aF-0.96643
aF0.593108
aF0.926617
aF-0.311856
aF-1.150933
aF-1.288709
aF0.631744
aF0.190708
aa(lp2610
F-0.305682
aF1.495304
aF0.818297
aF-1.680048
aF-0.9844
aF-1.442949
aF0.398392
aF1.343169
aF-1.162075
aF-1.531669
aa(lp2611
F0.519389
aF-1.432201
aF-0.490503
aF0.84568
aF0.926617
aF-0.971661
aF-0.869237
aF-0.716562
aF0.691538
aF1.499716
aa(lp2612
F1.436135
aF0.819726
aF1.175242
aF-0.922329
aF-0.446927
aF-0.029083
aF1.243478
aF0.542163
aF-0.982693
aF-0.842718
aa(lp2613
F-0.305682
aF-0.869219
aF-0.787957
aF0.151105
aF1.046056
aF1.196267
aF-1.010085
aF-1.117065
aF1.528653
aF0.879659
aa(lp2614
F1.069437
aF0.707129
aF1.115751
aF-0.985472
aF-0.626084
aF0.065175
aF2.01814
aF0.942666
aF-0.803311
aF-0.636033
aa(lp2615
F-0.214007
aF1.439006
aF1.115751
aF-0.859186
aF-1.402435
aF-0.500372
aF0.891359
aF0.656592
aF-1.162075
aF-1.66946
aa(lp2616
F1.802833
aF0.650831
aF0.699315
aF-0.480327
aF-0.506646
aF0.159432
aF1.243478
aF0.427733
aF-1.221869
aF-0.153767
aa(lp2617
F-0.764055
aF-1.038114
aF-1.144902
aF0.84568
aF1.284933
aF-0.217599
aF-1.714324
aF-0.830991
aF0.691538
aF0.672974
aa(lp2618
F1.436135
aF0.98862
aF0.937279
aF-0.669756
aF-0.685804
aF0.347948
aF1.595597
aF0.771022
aF-1.042487
aF-0.842718
aa(lp2619
F1.34446
aF-0.362536
aF0.937279
aF-0.101468
aF-0.208049
aF2.233103
aF0.891359
aF0.828236
aF0.213186
aF0.604079
aa(lp2620
F1.802833
aF0.594533
aF0.877788
aF0.087962
aF-0.387207
aF0.347948
aF0.750511
aF0.713807
aF-1.042487
aF0.328499
aa(lp2621
F-0.030658
aF1.495304
aF1.294224
aF-1.238045
aF-0.864962
aF-0.217599
aF0.53924
aF1.285954
aF-1.341457
aF-1.118299
aa(lp2622
F1.527809
aF1.044918
aF0.937279
aF0.593108
aF-0.566365
aF1.573298
aF0.891359
aF0.484948
aF0.27298
aF0.672974
aa(lp2623
F-0.580706
aF0.98862
aF1.71066
aF-1.048616
aF-1.223277
aF-0.406114
aF1.10263
aF1.057095
aF-1.401251
aF-0.636033
aa(lp2624
F-0.67238
aF1.326409
aF0.401861
aF-0.922329
aF-0.864962
aF-1.537207
aF-0.446694
aF1.686457
aF-1.281663
aF-1.187194
aa(lp2625
F-0.855729
aF-0.812921
aF-1.263884
aF1.350826
aF1.046056
aF0.724979
aF-1.010085
aF-0.716562
aF0.631744
aF0.810764
aa(lp2626
F1.069437
aF0.200446
aF-0.728466
aF0.466821
aF0.74746
aF2.138845
aF-0.869237
aF-0.144414
aF-0.085784
aF0.948555
aa(lp2627
F-0.67238
aF-1.038114
aF-0.906939
aF0.719394
aF0.986337
aF0.25369
aF-1.291781
aF-1.231494
aF0.751332
aF1.01745
aa(lp2628
F-0.122333
aF-0.362536
aF-0.014576
aF0.529964
aF-0.387207
aF1.667556
aF0.18712
aF-0.258844
aF0.033804
aF1.224135
aa(lp2629
F-0.580706
aF-1.15071
aF-0.906939
aF1.22454
aF0.807179
aF0.724979
aF-1.221357
aF-0.773776
aF1.409065
aF0.948555
aa(lp2630
F-1.497451
aF-0.925518
aF-0.728466
aF1.413969
aF1.464091
aF0.159432
aF-1.291781
aF-1.17428
aF0.691538
aF0.190708
aa(lp2631
F2.169532
aF0.425639
aF0.044915
aF-0.101468
aF-0.446927
aF0.065175
aF1.173054
aF0.656592
aF-0.324959
aF0.672974
aa(lp2632
F0.33604
aF0.256744
aF0.937279
aF-0.417184
aF-0.805242
aF0.724979
aF-0.305847
aF0.313304
aF-0.324959
aF-0.015977
aa(lp2633
F-0.305682
aF-1.319605
aF-1.085412
aF1.540256
aF1.523811
aF0.630721
aF-0.72839
aF-0.659347
aF0.631744
aF0.397394
aa(lp2634
F-0.214007
aF-0.812921
aF-0.96643
aF0.84568
aF0.926617
aF0.065175
aF-0.587542
aF-1.288709
aF0.930714
aF0.810764
aa(lp2635
F-0.67238
aF-0.812921
aF-1.144902
aF0.782537
aF0.866898
aF-0.029083
aF-1.362204
aF-1.231494
aF1.110095
aF0.604079
aa(lp2636
F1.619484
aF0.481937
aF0.937279
aF0.087962
aF-0.267769
aF0.536463
aF1.243478
aF0.313304
aF-0.444547
aF-0.636033
aa(lp2637
F-2.505872
aF-1.488499
aF-1.263884
aF0.529964
aF0.508582
aF-0.029083
aF-1.784747
aF-1.288709
aF1.409065
aF0.672974
aa(lp2638
F-0.122333
aF1.044918
aF0.34237
aF-1.048616
aF-0.745523
aF-1.725722
aF0.609663
aF1.457598
aF-0.922899
aF-1.049404
aa(lp2639
F-0.489031
aF-1.432201
aF-0.847448
aF1.540256
aF0.389144
aF1.007752
aF-0.305847
aF-0.830991
aF0.990508
aF0.672974
aa(lp2640
F-0.305682
aF-0.869219
aF-1.501848
aF0.340535
aF1.284933
aF0.724979
aF-1.010085
aF-1.231494
aF0.691538
aF0.604079
aa(lp2641
F-0.305682
aF1.382708
aF-0.193048
aF-1.174902
aF-0.626084
aF-0.406114
aF0.257544
aF1.343169
aF-1.221869
aF-0.980509
aa(lp2642
F0.061016
aF-0.700325
aF-0.96643
aF0.719394
aF0.807179
aF0.630721
aF-0.798814
aF-1.17428
aF1.468859
aF0.879659
aa(lp2643
F-0.030658
aF0.313042
aF1.472697
aF-1.174902
aF-1.163558
aF-0.783145
aF1.736445
aF0.599377
aF-1.401251
aF-1.256089
aa(lp2644
F-1.405777
aF-1.432201
aF-1.085412
aF1.098253
aF1.046056
aF-1.254434
aF-1.221357
aF-1.117065
aF1.409065
aF0.259603
aa(lp2645
F-0.855729
aF-0.812921
aF-1.561339
aF1.161396
aF0.74746
aF-0.311856
aF-1.573476
aF-0.888206
aF1.349271
aF0.672974
aa(lp2646
F0.244365
aF-0.137343
aF-0.252539
aF1.098253
aF0.68774
aF1.573298
aF-0.446694
aF-0.602132
aF0.751332
aF0.879659
aa(lp2647
F-1.222428
aF-1.319605
aF-1.204393
aF-0.164611
aF-0.267769
aF-0.217599
aF-2.207291
aF-1.345924
aF1.110095
aF0.810764
aa(lp2648
F0.977762
aF0.932322
aF0.996769
aF-0.922329
aF-0.685804
aF-0.500372
aF1.525173
aF0.542163
aF-0.564135
aF-1.118299
aa(lp2649
F-1.589126
aF-1.488499
aF-0.96643
aF0.593108
aF0.68774
aF-0.029083
aF-1.150933
aF-1.288709
aF0.57195
aF0.397394
aa(lp2650
F-0.580706
aF-0.475132
aF-0.490503
aF1.22454
aF0.807179
aF1.573298
aF-0.869237
aF-0.716562
aF0.093598
aF1.29303
aa(lp2651
F-0.489031
aF-0.981816
aF-0.96643
aF0.466821
aF1.523811
aF0.159432
aF-1.925595
aF-1.288709
aF1.409065
aF-0.980509
aa(lp2652
F-0.580706
aF0.763428
aF0.104406
aF-1.111759
aF-1.521874
aF-1.442949
aF-0.798814
aF1.400384
aF-1.461045
aF-1.393879
aa(lp2653
F0.061016
aF1.270111
aF1.353715
aF-1.301188
aF-1.04412
aF-0.311856
aF0.609663
aF0.828236
aF-1.281663
aF-1.049404
aa(lp2654
F-0.397357
aF1.326409
aF1.234733
aF-1.301188
aF-1.163558
aF-0.500372
aF0.53924
aF1.514813
aF-1.162075
aF-1.94504
aa(lp2655
F-0.397357
aF1.326409
aF-0.014576
aF-1.238045
aF-0.685804
aF-0.59463
aF0.468816
aF1.285954
aF-1.341457
aF-0.911613
aa(lp2656
F-1.497451
aF-0.981816
aF-0.728466
aF0.656251
aF1.284933
aF0.347948
aF-0.587542
aF-0.888206
aF1.528653
aF0.535184
aa(lp2657
F-0.030658
aF-0.362536
aF-0.193048
aF1.161396
aF0.628021
aF0.630721
aF-1.291781
aF-0.544917
aF0.452362
aF1.29303
aa(lp2658
F1.619484
aF0.144148
aF0.461352
aF0.277392
aF-0.387207
aF1.667556
aF1.313902
aF0.484948
aF-0.085784
aF0.052918
aa(lp2659
F-0.030658
aF-1.038114
aF-0.431012
aF0.593108
aF0.68774
aF0.347948
aF-0.235423
aF-0.487703
aF0.631744
aF1.15524
aa(lp2660
F0.702738
aF-0.700325
aF-0.252539
aF0.971967
aF0.807179
aF1.196267
aF-0.72839
aF-0.430488
aF1.050302
aF1.499716
aa(lp2661
F-0.67238
aF0.819726
aF0.877788
aF-1.427475
aF-1.402435
aF-2.385527
aF0.327968
aF1.972531
aF-1.221869
aF-1.187194
aa(lp2662
F-0.122333
aF1.495304
aF0.104406
aF-1.743191
aF-1.282997
aF-0.783145
aF0.609663
aF1.343169
aF-1.401251
aF-1.118299
aa(lp2663
F0.794413
aF1.044918
aF1.05626
aF-0.417184
aF-1.462155
aF-0.406114
aF1.736445
aF0.771022
aF-0.803311
aF-0.704928
aa(lp2664
F-0.030658
aF0.819726
aF0.223388
aF-0.922329
aF-0.9844
aF-1.81998
aF-0.235423
aF1.858102
aF-1.401251
aF-1.118299
aa(lp2665
F-0.67238
aF-0.812921
aF-1.025921
aF0.656251
aF0.68774
aF-0.029083
aF-1.6439
aF-1.345924
aF0.811126
aF0.672974
aa(lp2666
F-0.580706
aF0.650831
aF1.353715
aF-0.922329
aF-1.521874
aF-1.160176
aF0.680087
aF1.057095
aF-1.221869
aF-1.738355
aa(lp2667
F0.244365
aF1.495304
aF1.234733
aF-1.364332
aF-0.924681
aF-0.406114
aF0.680087
aF1.514813
aF-1.341457
aF-1.118299
aasS'penalty'
p2668
F0.0
sS'conf'
p2669
(dp2670
S'lamb'
p2671
F0.0
sS'h_units'
p2672
I20
sS'batch_size'
p2673
I30
sS'eta'
p2674
F0.1
sS'mode'
p2675
S'batch'
p2676
sg125
F0.3
ssb.